
KeyboardController.elf:     file format elf32-avr

Sections:
Idx Name          Size      VMA       LMA       File off  Algn
  0 .data         0000002a  00803800  00001c7c  00001d30  2**0
                  CONTENTS, ALLOC, LOAD, DATA
  1 .text         00001c28  00000000  00000000  000000b4  2**1
                  CONTENTS, ALLOC, LOAD, READONLY, CODE
  2 .rodata       00000054  00009c28  00001c28  00001cdc  2**0
                  CONTENTS, ALLOC, LOAD, READONLY, DATA
  3 .bss          0000003a  0080382a  0080382a  00001d5a  2**0
                  ALLOC
  4 .comment      00000060  00000000  00000000  00001d5a  2**0
                  CONTENTS, READONLY
  5 .note.gnu.avr.deviceinfo 00000040  00000000  00000000  00001dbc  2**2
                  CONTENTS, READONLY
  6 .debug_aranges 000003f8  00000000  00000000  00001e00  2**3
                  CONTENTS, READONLY, DEBUGGING
  7 .debug_info   00009249  00000000  00000000  000021f8  2**0
                  CONTENTS, READONLY, DEBUGGING
  8 .debug_abbrev 00002dfc  00000000  00000000  0000b441  2**0
                  CONTENTS, READONLY, DEBUGGING
  9 .debug_line   0000214b  00000000  00000000  0000e23d  2**0
                  CONTENTS, READONLY, DEBUGGING
 10 .debug_frame  00000778  00000000  00000000  00010388  2**2
                  CONTENTS, READONLY, DEBUGGING
 11 .debug_str    00003177  00000000  00000000  00010b00  2**0
                  CONTENTS, READONLY, DEBUGGING
 12 .debug_loc    0000286d  00000000  00000000  00013c77  2**0
                  CONTENTS, READONLY, DEBUGGING
 13 .debug_ranges 00000310  00000000  00000000  000164e4  2**0
                  CONTENTS, READONLY, DEBUGGING

Disassembly of section .text:

00000000 <__vectors>:
       0:	0c 94 3e 00 	jmp	0x7c	; 0x7c <__ctors_end>
       4:	0c 94 5b 00 	jmp	0xb6	; 0xb6 <__bad_interrupt>
       8:	0c 94 5b 00 	jmp	0xb6	; 0xb6 <__bad_interrupt>
       c:	0c 94 5b 00 	jmp	0xb6	; 0xb6 <__bad_interrupt>
      10:	0c 94 5b 00 	jmp	0xb6	; 0xb6 <__bad_interrupt>
      14:	0c 94 5b 00 	jmp	0xb6	; 0xb6 <__bad_interrupt>
      18:	0c 94 1c 01 	jmp	0x238	; 0x238 <__vector_6>
      1c:	0c 94 5b 00 	jmp	0xb6	; 0xb6 <__bad_interrupt>
      20:	0c 94 5b 00 	jmp	0xb6	; 0xb6 <__bad_interrupt>
      24:	0c 94 5b 00 	jmp	0xb6	; 0xb6 <__bad_interrupt>
      28:	0c 94 5b 00 	jmp	0xb6	; 0xb6 <__bad_interrupt>
      2c:	0c 94 5b 00 	jmp	0xb6	; 0xb6 <__bad_interrupt>
      30:	0c 94 5b 00 	jmp	0xb6	; 0xb6 <__bad_interrupt>
      34:	0c 94 5b 00 	jmp	0xb6	; 0xb6 <__bad_interrupt>
      38:	0c 94 5b 00 	jmp	0xb6	; 0xb6 <__bad_interrupt>
      3c:	0c 94 5b 00 	jmp	0xb6	; 0xb6 <__bad_interrupt>
      40:	0c 94 5b 00 	jmp	0xb6	; 0xb6 <__bad_interrupt>
      44:	0c 94 5b 00 	jmp	0xb6	; 0xb6 <__bad_interrupt>
      48:	0c 94 5b 00 	jmp	0xb6	; 0xb6 <__bad_interrupt>
      4c:	0c 94 5b 00 	jmp	0xb6	; 0xb6 <__bad_interrupt>
      50:	0c 94 ad 03 	jmp	0x75a	; 0x75a <__vector_20>
      54:	0c 94 5b 00 	jmp	0xb6	; 0xb6 <__bad_interrupt>
      58:	0c 94 fd 03 	jmp	0x7fa	; 0x7fa <__vector_22>
      5c:	0c 94 5b 00 	jmp	0xb6	; 0xb6 <__bad_interrupt>
      60:	0c 94 19 06 	jmp	0xc32	; 0xc32 <__vector_24>
      64:	0c 94 5b 00 	jmp	0xb6	; 0xb6 <__bad_interrupt>
      68:	0c 94 5b 00 	jmp	0xb6	; 0xb6 <__bad_interrupt>
      6c:	0c 94 5b 00 	jmp	0xb6	; 0xb6 <__bad_interrupt>
      70:	0c 94 5b 00 	jmp	0xb6	; 0xb6 <__bad_interrupt>
      74:	0c 94 5b 00 	jmp	0xb6	; 0xb6 <__bad_interrupt>
      78:	0c 94 5b 00 	jmp	0xb6	; 0xb6 <__bad_interrupt>

0000007c <__ctors_end>:
      7c:	11 24       	eor	r1, r1
      7e:	1f be       	out	0x3f, r1	; 63
      80:	cf ef       	ldi	r28, 0xFF	; 255
      82:	cd bf       	out	0x3d, r28	; 61
      84:	df e3       	ldi	r29, 0x3F	; 63
      86:	de bf       	out	0x3e, r29	; 62

00000088 <__do_copy_data>:
      88:	18 e3       	ldi	r17, 0x38	; 56
      8a:	a0 e0       	ldi	r26, 0x00	; 0
      8c:	b8 e3       	ldi	r27, 0x38	; 56
      8e:	ec e7       	ldi	r30, 0x7C	; 124
      90:	fc e1       	ldi	r31, 0x1C	; 28
      92:	02 c0       	rjmp	.+4      	; 0x98 <__do_copy_data+0x10>
      94:	05 90       	lpm	r0, Z+
      96:	0d 92       	st	X+, r0
      98:	aa 32       	cpi	r26, 0x2A	; 42
      9a:	b1 07       	cpc	r27, r17
      9c:	d9 f7       	brne	.-10     	; 0x94 <__do_copy_data+0xc>

0000009e <__do_clear_bss>:
      9e:	28 e3       	ldi	r18, 0x38	; 56
      a0:	aa e2       	ldi	r26, 0x2A	; 42
      a2:	b8 e3       	ldi	r27, 0x38	; 56
      a4:	01 c0       	rjmp	.+2      	; 0xa8 <.do_clear_bss_start>

000000a6 <.do_clear_bss_loop>:
      a6:	1d 92       	st	X+, r1

000000a8 <.do_clear_bss_start>:
      a8:	a4 36       	cpi	r26, 0x64	; 100
      aa:	b2 07       	cpc	r27, r18
      ac:	e1 f7       	brne	.-8      	; 0xa6 <.do_clear_bss_loop>
      ae:	0e 94 9b 02 	call	0x536	; 0x536 <main>
      b2:	0c 94 12 0e 	jmp	0x1c24	; 0x1c24 <_exit>

000000b6 <__bad_interrupt>:
      b6:	0c 94 00 00 	jmp	0	; 0x0 <__vectors>

000000ba <ts_getY>:
      ba:	cf 92       	push	r12
      bc:	df 92       	push	r13
      be:	ef 92       	push	r14
      c0:	ff 92       	push	r15
      c2:	0f 93       	push	r16
      c4:	1f 93       	push	r17
      c6:	cf 93       	push	r28
      c8:	df 93       	push	r29
      ca:	40 98       	cbi	0x08, 0	; 8
      cc:	e0 e5       	ldi	r30, 0x50	; 80
      ce:	f4 e0       	ldi	r31, 0x04	; 4
      d0:	80 81       	ld	r24, Z
      d2:	87 7f       	andi	r24, 0xF7	; 247
      d4:	80 83       	st	Z, r24
      d6:	48 98       	cbi	0x09, 0	; 9
      d8:	42 98       	cbi	0x08, 2	; 8
      da:	0f 2e       	mov	r0, r31
      dc:	f2 e5       	ldi	r31, 0x52	; 82
      de:	ef 2e       	mov	r14, r31
      e0:	f4 e0       	ldi	r31, 0x04	; 4
      e2:	ff 2e       	mov	r15, r31
      e4:	f0 2d       	mov	r31, r0
      e6:	f7 01       	movw	r30, r14
      e8:	80 81       	ld	r24, Z
      ea:	87 7f       	andi	r24, 0xF7	; 247
      ec:	80 83       	st	Z, r24
      ee:	4a 98       	cbi	0x09, 2	; 9
      f0:	41 9a       	sbi	0x08, 1	; 8
      f2:	01 e5       	ldi	r16, 0x51	; 81
      f4:	14 e0       	ldi	r17, 0x04	; 4
      f6:	f8 01       	movw	r30, r16
      f8:	80 81       	ld	r24, Z
      fa:	87 7f       	andi	r24, 0xF7	; 247
      fc:	80 83       	st	Z, r24
      fe:	49 9a       	sbi	0x09, 1	; 9
     100:	43 9a       	sbi	0x08, 3	; 8
     102:	c3 e5       	ldi	r28, 0x53	; 83
     104:	d4 e0       	ldi	r29, 0x04	; 4
     106:	88 81       	ld	r24, Y
     108:	87 7f       	andi	r24, 0xF7	; 247
     10a:	88 83       	st	Y, r24
     10c:	4b 98       	cbi	0x09, 3	; 9
     10e:	86 e0       	ldi	r24, 0x06	; 6
     110:	0e 94 e3 03 	call	0x7c6	; 0x7c6 <ADC_0_get_conversion>
     114:	6c 01       	movw	r12, r24
     116:	40 9a       	sbi	0x08, 0	; 8
     118:	48 98       	cbi	0x09, 0	; 9
     11a:	f7 01       	movw	r30, r14
     11c:	80 81       	ld	r24, Z
     11e:	88 60       	ori	r24, 0x08	; 8
     120:	80 83       	st	Z, r24
     122:	4a 98       	cbi	0x09, 2	; 9
     124:	f8 01       	movw	r30, r16
     126:	80 81       	ld	r24, Z
     128:	88 60       	ori	r24, 0x08	; 8
     12a:	80 83       	st	Z, r24
     12c:	49 98       	cbi	0x09, 1	; 9
     12e:	88 81       	ld	r24, Y
     130:	88 60       	ori	r24, 0x08	; 8
     132:	88 83       	st	Y, r24
     134:	4b 98       	cbi	0x09, 3	; 9
     136:	0e 94 f5 03 	call	0x7ea	; 0x7ea <ADC_0_get_resolution>
     13a:	88 50       	subi	r24, 0x08	; 8
     13c:	96 01       	movw	r18, r12
     13e:	02 c0       	rjmp	.+4      	; 0x144 <__EEPROM_REGION_LENGTH__+0x44>
     140:	36 95       	lsr	r19
     142:	27 95       	ror	r18
     144:	8a 95       	dec	r24
     146:	e2 f7       	brpl	.-8      	; 0x140 <__EEPROM_REGION_LENGTH__+0x40>
     148:	c9 01       	movw	r24, r18
     14a:	df 91       	pop	r29
     14c:	cf 91       	pop	r28
     14e:	1f 91       	pop	r17
     150:	0f 91       	pop	r16
     152:	ff 90       	pop	r15
     154:	ef 90       	pop	r14
     156:	df 90       	pop	r13
     158:	cf 90       	pop	r12
     15a:	08 95       	ret

0000015c <ts_getX>:
     15c:	cf 92       	push	r12
     15e:	df 92       	push	r13
     160:	ef 92       	push	r14
     162:	ff 92       	push	r15
     164:	0f 93       	push	r16
     166:	1f 93       	push	r17
     168:	cf 93       	push	r28
     16a:	df 93       	push	r29
     16c:	40 9a       	sbi	0x08, 0	; 8
     16e:	e0 e5       	ldi	r30, 0x50	; 80
     170:	f4 e0       	ldi	r31, 0x04	; 4
     172:	80 81       	ld	r24, Z
     174:	87 7f       	andi	r24, 0xF7	; 247
     176:	80 83       	st	Z, r24
     178:	48 9a       	sbi	0x09, 0	; 9
     17a:	42 9a       	sbi	0x08, 2	; 8
     17c:	0f 2e       	mov	r0, r31
     17e:	f2 e5       	ldi	r31, 0x52	; 82
     180:	ef 2e       	mov	r14, r31
     182:	f4 e0       	ldi	r31, 0x04	; 4
     184:	ff 2e       	mov	r15, r31
     186:	f0 2d       	mov	r31, r0
     188:	f7 01       	movw	r30, r14
     18a:	80 81       	ld	r24, Z
     18c:	87 7f       	andi	r24, 0xF7	; 247
     18e:	80 83       	st	Z, r24
     190:	4a 98       	cbi	0x09, 2	; 9
     192:	41 98       	cbi	0x08, 1	; 8
     194:	01 e5       	ldi	r16, 0x51	; 81
     196:	14 e0       	ldi	r17, 0x04	; 4
     198:	f8 01       	movw	r30, r16
     19a:	80 81       	ld	r24, Z
     19c:	87 7f       	andi	r24, 0xF7	; 247
     19e:	80 83       	st	Z, r24
     1a0:	49 98       	cbi	0x09, 1	; 9
     1a2:	43 98       	cbi	0x08, 3	; 8
     1a4:	c3 e5       	ldi	r28, 0x53	; 83
     1a6:	d4 e0       	ldi	r29, 0x04	; 4
     1a8:	88 81       	ld	r24, Y
     1aa:	87 7f       	andi	r24, 0xF7	; 247
     1ac:	88 83       	st	Y, r24
     1ae:	4b 98       	cbi	0x09, 3	; 9
     1b0:	87 e0       	ldi	r24, 0x07	; 7
     1b2:	0e 94 e3 03 	call	0x7c6	; 0x7c6 <ADC_0_get_conversion>
     1b6:	6c 01       	movw	r12, r24
     1b8:	40 9a       	sbi	0x08, 0	; 8
     1ba:	48 98       	cbi	0x09, 0	; 9
     1bc:	f7 01       	movw	r30, r14
     1be:	80 81       	ld	r24, Z
     1c0:	88 60       	ori	r24, 0x08	; 8
     1c2:	80 83       	st	Z, r24
     1c4:	4a 98       	cbi	0x09, 2	; 9
     1c6:	f8 01       	movw	r30, r16
     1c8:	80 81       	ld	r24, Z
     1ca:	88 60       	ori	r24, 0x08	; 8
     1cc:	80 83       	st	Z, r24
     1ce:	49 98       	cbi	0x09, 1	; 9
     1d0:	88 81       	ld	r24, Y
     1d2:	88 60       	ori	r24, 0x08	; 8
     1d4:	88 83       	st	Y, r24
     1d6:	4b 98       	cbi	0x09, 3	; 9
     1d8:	0e 94 f5 03 	call	0x7ea	; 0x7ea <ADC_0_get_resolution>
     1dc:	88 50       	subi	r24, 0x08	; 8
     1de:	96 01       	movw	r18, r12
     1e0:	02 c0       	rjmp	.+4      	; 0x1e6 <ts_getX+0x8a>
     1e2:	36 95       	lsr	r19
     1e4:	27 95       	ror	r18
     1e6:	8a 95       	dec	r24
     1e8:	e2 f7       	brpl	.-8      	; 0x1e2 <ts_getX+0x86>
     1ea:	c9 01       	movw	r24, r18
     1ec:	df 91       	pop	r29
     1ee:	cf 91       	pop	r28
     1f0:	1f 91       	pop	r17
     1f2:	0f 91       	pop	r16
     1f4:	ff 90       	pop	r15
     1f6:	ef 90       	pop	r14
     1f8:	df 90       	pop	r13
     1fa:	cf 90       	pop	r12
     1fc:	08 95       	ret

000001fe <getKeyOffset>:
     1fe:	e9 e2       	ldi	r30, 0x29	; 41
     200:	fc e9       	ldi	r31, 0x9C	; 156
     202:	20 e0       	ldi	r18, 0x00	; 0
     204:	30 e0       	ldi	r19, 0x00	; 0
     206:	a9 01       	movw	r20, r18
     208:	91 81       	ldd	r25, Z+1	; 0x01
     20a:	96 13       	cpse	r25, r22
     20c:	0d c0       	rjmp	.+26     	; 0x228 <getKeyOffset+0x2a>
     20e:	90 81       	ld	r25, Z
     210:	98 13       	cpse	r25, r24
     212:	0a c0       	rjmp	.+20     	; 0x228 <getKeyOffset+0x2a>
     214:	f9 01       	movw	r30, r18
     216:	ee 0f       	add	r30, r30
     218:	ff 1f       	adc	r31, r31
     21a:	4e 0f       	add	r20, r30
     21c:	5f 1f       	adc	r21, r31
     21e:	fa 01       	movw	r30, r20
     220:	e8 5d       	subi	r30, 0xD8	; 216
     222:	f3 46       	sbci	r31, 0x63	; 99
     224:	80 81       	ld	r24, Z
     226:	08 95       	ret
     228:	2f 5f       	subi	r18, 0xFF	; 255
     22a:	3f 4f       	sbci	r19, 0xFF	; 255
     22c:	33 96       	adiw	r30, 0x03	; 3
     22e:	2a 31       	cpi	r18, 0x1A	; 26
     230:	31 05       	cpc	r19, r1
     232:	49 f7       	brne	.-46     	; 0x206 <getKeyOffset+0x8>
     234:	8f ef       	ldi	r24, 0xFF	; 255
     236:	08 95       	ret

00000238 <__vector_6>:
     238:	1f 92       	push	r1
     23a:	0f 92       	push	r0
     23c:	0f b6       	in	r0, 0x3f	; 63
     23e:	0f 92       	push	r0
     240:	11 24       	eor	r1, r1
     242:	2f 93       	push	r18
     244:	3f 93       	push	r19
     246:	4f 93       	push	r20
     248:	5f 93       	push	r21
     24a:	6f 93       	push	r22
     24c:	7f 93       	push	r23
     24e:	8f 93       	push	r24
     250:	9f 93       	push	r25
     252:	af 93       	push	r26
     254:	bf 93       	push	r27
     256:	ef 93       	push	r30
     258:	ff 93       	push	r31
     25a:	0e 94 8c 03 	call	0x718	; 0x718 <touch_timer_handler>
     25e:	82 e0       	ldi	r24, 0x02	; 2
     260:	80 93 43 01 	sts	0x0143, r24	; 0x800143 <gain_setting_int_cap+0x7f64cd>
     264:	ff 91       	pop	r31
     266:	ef 91       	pop	r30
     268:	bf 91       	pop	r27
     26a:	af 91       	pop	r26
     26c:	9f 91       	pop	r25
     26e:	8f 91       	pop	r24
     270:	7f 91       	pop	r23
     272:	6f 91       	pop	r22
     274:	5f 91       	pop	r21
     276:	4f 91       	pop	r20
     278:	3f 91       	pop	r19
     27a:	2f 91       	pop	r18
     27c:	0f 90       	pop	r0
     27e:	0f be       	out	0x3f, r0	; 63
     280:	0f 90       	pop	r0
     282:	1f 90       	pop	r1
     284:	18 95       	reti

00000286 <I2C_0_stop_handler>:
     286:	10 92 2a 38 	sts	0x382A, r1	; 0x80382a <__data_end>
     28a:	08 95       	ret

0000028c <I2C_0_error_handler>:
     28c:	08 95       	ret

0000028e <I2C_0_address_handler>:
     28e:	0e 94 72 05 	call	0xae4	; 0xae4 <I2C_0_read>
     292:	80 93 3f 38 	sts	0x383F, r24	; 0x80383f <I2C_0_slave_address>
     296:	0e 94 7c 05 	call	0xaf8	; 0xaf8 <I2C_0_send_ack>
     29a:	10 92 2a 38 	sts	0x382A, r1	; 0x80382a <__data_end>
     29e:	08 95       	ret

000002a0 <I2C_0_write_handler>:
     2a0:	0e 94 72 05 	call	0xae4	; 0xae4 <I2C_0_read>
     2a4:	80 93 3e 38 	sts	0x383E, r24	; 0x80383e <I2C_0_register_address>
     2a8:	0e 94 7c 05 	call	0xaf8	; 0xaf8 <I2C_0_send_ack>
     2ac:	08 95       	ret

000002ae <I2C_0_read_handler>:
     2ae:	e0 91 2a 38 	lds	r30, 0x382A	; 0x80382a <__data_end>
     2b2:	e6 30       	cpi	r30, 0x06	; 6
     2b4:	24 f0       	brlt	.+8      	; 0x2be <I2C_0_read_handler+0x10>
     2b6:	8f ef       	ldi	r24, 0xFF	; 255
     2b8:	0e 94 75 05 	call	0xaea	; 0xaea <I2C_0_write>
     2bc:	0d c0       	rjmp	.+26     	; 0x2d8 <I2C_0_read_handler+0x2a>
     2be:	0e 2e       	mov	r0, r30
     2c0:	00 0c       	add	r0, r0
     2c2:	ff 0b       	sbc	r31, r31
     2c4:	e5 5d       	subi	r30, 0xD5	; 213
     2c6:	f7 4c       	sbci	r31, 0xC7	; 199
     2c8:	80 81       	ld	r24, Z
     2ca:	0e 94 75 05 	call	0xaea	; 0xaea <I2C_0_write>
     2ce:	80 91 2a 38 	lds	r24, 0x382A	; 0x80382a <__data_end>
     2d2:	8f 5f       	subi	r24, 0xFF	; 255
     2d4:	80 93 2a 38 	sts	0x382A, r24	; 0x80382a <__data_end>
     2d8:	0e 94 7c 05 	call	0xaf8	; 0xaf8 <I2C_0_send_ack>
     2dc:	08 95       	ret

000002de <I2C_0_slave_init>:
     2de:	87 e5       	ldi	r24, 0x57	; 87
     2e0:	91 e0       	ldi	r25, 0x01	; 1
     2e2:	0e 94 90 05 	call	0xb20	; 0xb20 <I2C_0_set_read_callback>
     2e6:	80 e5       	ldi	r24, 0x50	; 80
     2e8:	91 e0       	ldi	r25, 0x01	; 1
     2ea:	0e 94 9d 05 	call	0xb3a	; 0xb3a <I2C_0_set_write_callback>
     2ee:	87 e4       	ldi	r24, 0x47	; 71
     2f0:	91 e0       	ldi	r25, 0x01	; 1
     2f2:	0e 94 aa 05 	call	0xb54	; 0xb54 <I2C_0_set_address_callback>
     2f6:	83 e4       	ldi	r24, 0x43	; 67
     2f8:	91 e0       	ldi	r25, 0x01	; 1
     2fa:	0e 94 b7 05 	call	0xb6e	; 0xb6e <I2C_0_set_stop_callback>
     2fe:	86 e4       	ldi	r24, 0x46	; 70
     300:	91 e0       	ldi	r25, 0x01	; 1
     302:	0e 94 c4 05 	call	0xb88	; 0xb88 <I2C_0_set_collision_callback>
     306:	86 e4       	ldi	r24, 0x46	; 70
     308:	91 e0       	ldi	r25, 0x01	; 1
     30a:	0e 94 3d 06 	call	0xc7a	; 0xc7a <I2C_0_set_bus_error_callback>
     30e:	0e 94 6c 05 	call	0xad8	; 0xad8 <I2C_0_open>
     312:	08 95       	ret

00000314 <setRow>:
     314:	82 30       	cpi	r24, 0x02	; 2
     316:	b9 f0       	breq	.+46     	; 0x346 <setRow+0x32>
     318:	28 f4       	brcc	.+10     	; 0x324 <setRow+0x10>
     31a:	88 23       	and	r24, r24
     31c:	41 f0       	breq	.+16     	; 0x32e <setRow+0x1a>
     31e:	81 30       	cpi	r24, 0x01	; 1
     320:	61 f0       	breq	.+24     	; 0x33a <setRow+0x26>
     322:	08 95       	ret
     324:	83 30       	cpi	r24, 0x03	; 3
     326:	a9 f0       	breq	.+42     	; 0x352 <setRow+0x3e>
     328:	84 30       	cpi	r24, 0x04	; 4
     32a:	c9 f0       	breq	.+50     	; 0x35e <setRow+0x4a>
     32c:	08 95       	ret
     32e:	0d 98       	cbi	0x01, 5	; 1
     330:	0c 9a       	sbi	0x01, 4	; 1
     332:	0b 9a       	sbi	0x01, 3	; 1
     334:	0a 9a       	sbi	0x01, 2	; 1
     336:	09 9a       	sbi	0x01, 1	; 1
     338:	08 95       	ret
     33a:	0d 9a       	sbi	0x01, 5	; 1
     33c:	0c 98       	cbi	0x01, 4	; 1
     33e:	0b 9a       	sbi	0x01, 3	; 1
     340:	0a 9a       	sbi	0x01, 2	; 1
     342:	09 9a       	sbi	0x01, 1	; 1
     344:	08 95       	ret
     346:	0d 9a       	sbi	0x01, 5	; 1
     348:	0c 9a       	sbi	0x01, 4	; 1
     34a:	0b 98       	cbi	0x01, 3	; 1
     34c:	0a 9a       	sbi	0x01, 2	; 1
     34e:	09 9a       	sbi	0x01, 1	; 1
     350:	08 95       	ret
     352:	0d 9a       	sbi	0x01, 5	; 1
     354:	0c 9a       	sbi	0x01, 4	; 1
     356:	0b 9a       	sbi	0x01, 3	; 1
     358:	0a 98       	cbi	0x01, 2	; 1
     35a:	09 9a       	sbi	0x01, 1	; 1
     35c:	08 95       	ret
     35e:	0d 9a       	sbi	0x01, 5	; 1
     360:	0c 9a       	sbi	0x01, 4	; 1
     362:	0b 9a       	sbi	0x01, 3	; 1
     364:	0a 9a       	sbi	0x01, 2	; 1
     366:	09 98       	cbi	0x01, 1	; 1
     368:	08 95       	ret

0000036a <readCol>:
     36a:	82 30       	cpi	r24, 0x02	; 2
     36c:	d1 f0       	breq	.+52     	; 0x3a2 <readCol+0x38>
     36e:	28 f4       	brcc	.+10     	; 0x37a <readCol+0x10>
     370:	88 23       	and	r24, r24
     372:	49 f0       	breq	.+18     	; 0x386 <readCol+0x1c>
     374:	81 30       	cpi	r24, 0x01	; 1
     376:	71 f0       	breq	.+28     	; 0x394 <readCol+0x2a>
     378:	2e c0       	rjmp	.+92     	; 0x3d6 <readCol+0x6c>
     37a:	84 30       	cpi	r24, 0x04	; 4
     37c:	f9 f0       	breq	.+62     	; 0x3bc <readCol+0x52>
     37e:	c0 f0       	brcs	.+48     	; 0x3b0 <readCol+0x46>
     380:	85 30       	cpi	r24, 0x05	; 5
     382:	11 f1       	breq	.+68     	; 0x3c8 <readCol+0x5e>
     384:	28 c0       	rjmp	.+80     	; 0x3d6 <readCol+0x6c>
     386:	86 b1       	in	r24, 0x06	; 6
     388:	82 fb       	bst	r24, 2
     38a:	99 27       	eor	r25, r25
     38c:	90 f9       	bld	r25, 0
     38e:	81 e0       	ldi	r24, 0x01	; 1
     390:	89 27       	eor	r24, r25
     392:	08 95       	ret
     394:	86 b1       	in	r24, 0x06	; 6
     396:	86 fb       	bst	r24, 6
     398:	99 27       	eor	r25, r25
     39a:	90 f9       	bld	r25, 0
     39c:	81 e0       	ldi	r24, 0x01	; 1
     39e:	89 27       	eor	r24, r25
     3a0:	08 95       	ret
     3a2:	86 b1       	in	r24, 0x06	; 6
     3a4:	85 fb       	bst	r24, 5
     3a6:	99 27       	eor	r25, r25
     3a8:	90 f9       	bld	r25, 0
     3aa:	81 e0       	ldi	r24, 0x01	; 1
     3ac:	89 27       	eor	r24, r25
     3ae:	08 95       	ret
     3b0:	86 b1       	in	r24, 0x06	; 6
     3b2:	80 95       	com	r24
     3b4:	88 1f       	adc	r24, r24
     3b6:	88 27       	eor	r24, r24
     3b8:	88 1f       	adc	r24, r24
     3ba:	08 95       	ret
     3bc:	86 b1       	in	r24, 0x06	; 6
     3be:	82 95       	swap	r24
     3c0:	81 70       	andi	r24, 0x01	; 1
     3c2:	91 e0       	ldi	r25, 0x01	; 1
     3c4:	89 27       	eor	r24, r25
     3c6:	08 95       	ret
     3c8:	86 b1       	in	r24, 0x06	; 6
     3ca:	83 fb       	bst	r24, 3
     3cc:	99 27       	eor	r25, r25
     3ce:	90 f9       	bld	r25, 0
     3d0:	81 e0       	ldi	r24, 0x01	; 1
     3d2:	89 27       	eor	r24, r25
     3d4:	08 95       	ret
     3d6:	80 e0       	ldi	r24, 0x00	; 0
     3d8:	08 95       	ret

000003da <getKeyState>:
     3da:	68 30       	cpi	r22, 0x08	; 8
     3dc:	50 f4       	brcc	.+20     	; 0x3f2 <getKeyState+0x18>
     3de:	fc 01       	movw	r30, r24
     3e0:	80 81       	ld	r24, Z
     3e2:	90 e0       	ldi	r25, 0x00	; 0
     3e4:	02 c0       	rjmp	.+4      	; 0x3ea <getKeyState+0x10>
     3e6:	95 95       	asr	r25
     3e8:	87 95       	ror	r24
     3ea:	6a 95       	dec	r22
     3ec:	e2 f7       	brpl	.-8      	; 0x3e6 <getKeyState+0xc>
     3ee:	81 70       	andi	r24, 0x01	; 1
     3f0:	08 95       	ret
     3f2:	60 31       	cpi	r22, 0x10	; 16
     3f4:	58 f4       	brcc	.+22     	; 0x40c <__LOCK_REGION_LENGTH__+0xc>
     3f6:	fc 01       	movw	r30, r24
     3f8:	81 81       	ldd	r24, Z+1	; 0x01
     3fa:	90 e0       	ldi	r25, 0x00	; 0
     3fc:	68 50       	subi	r22, 0x08	; 8
     3fe:	02 c0       	rjmp	.+4      	; 0x404 <__LOCK_REGION_LENGTH__+0x4>
     400:	95 95       	asr	r25
     402:	87 95       	ror	r24
     404:	6a 95       	dec	r22
     406:	e2 f7       	brpl	.-8      	; 0x400 <__LOCK_REGION_LENGTH__>
     408:	81 70       	andi	r24, 0x01	; 1
     40a:	08 95       	ret
     40c:	68 31       	cpi	r22, 0x18	; 24
     40e:	58 f4       	brcc	.+22     	; 0x426 <__LOCK_REGION_LENGTH__+0x26>
     410:	fc 01       	movw	r30, r24
     412:	82 81       	ldd	r24, Z+2	; 0x02
     414:	90 e0       	ldi	r25, 0x00	; 0
     416:	60 51       	subi	r22, 0x10	; 16
     418:	02 c0       	rjmp	.+4      	; 0x41e <__LOCK_REGION_LENGTH__+0x1e>
     41a:	95 95       	asr	r25
     41c:	87 95       	ror	r24
     41e:	6a 95       	dec	r22
     420:	e2 f7       	brpl	.-8      	; 0x41a <__LOCK_REGION_LENGTH__+0x1a>
     422:	81 70       	andi	r24, 0x01	; 1
     424:	08 95       	ret
     426:	60 32       	cpi	r22, 0x20	; 32
     428:	58 f4       	brcc	.+22     	; 0x440 <__LOCK_REGION_LENGTH__+0x40>
     42a:	fc 01       	movw	r30, r24
     42c:	83 81       	ldd	r24, Z+3	; 0x03
     42e:	90 e0       	ldi	r25, 0x00	; 0
     430:	68 51       	subi	r22, 0x18	; 24
     432:	02 c0       	rjmp	.+4      	; 0x438 <__LOCK_REGION_LENGTH__+0x38>
     434:	95 95       	asr	r25
     436:	87 95       	ror	r24
     438:	6a 95       	dec	r22
     43a:	e2 f7       	brpl	.-8      	; 0x434 <__LOCK_REGION_LENGTH__+0x34>
     43c:	81 70       	andi	r24, 0x01	; 1
     43e:	08 95       	ret
     440:	80 e0       	ldi	r24, 0x00	; 0
     442:	08 95       	ret

00000444 <setKeyState>:
     444:	0f 93       	push	r16
     446:	1f 93       	push	r17
     448:	68 30       	cpi	r22, 0x08	; 8
     44a:	c8 f4       	brcc	.+50     	; 0x47e <setKeyState+0x3a>
     44c:	01 e0       	ldi	r16, 0x01	; 1
     44e:	10 e0       	ldi	r17, 0x00	; 0
     450:	20 e0       	ldi	r18, 0x00	; 0
     452:	30 e0       	ldi	r19, 0x00	; 0
     454:	06 2e       	mov	r0, r22
     456:	04 c0       	rjmp	.+8      	; 0x460 <setKeyState+0x1c>
     458:	00 0f       	add	r16, r16
     45a:	11 1f       	adc	r17, r17
     45c:	22 1f       	adc	r18, r18
     45e:	33 1f       	adc	r19, r19
     460:	0a 94       	dec	r0
     462:	d2 f7       	brpl	.-12     	; 0x458 <setKeyState+0x14>
     464:	00 95       	com	r16
     466:	fc 01       	movw	r30, r24
     468:	20 81       	ld	r18, Z
     46a:	02 23       	and	r16, r18
     46c:	50 e0       	ldi	r21, 0x00	; 0
     46e:	02 c0       	rjmp	.+4      	; 0x474 <setKeyState+0x30>
     470:	44 0f       	add	r20, r20
     472:	55 1f       	adc	r21, r21
     474:	6a 95       	dec	r22
     476:	e2 f7       	brpl	.-8      	; 0x470 <setKeyState+0x2c>
     478:	40 2b       	or	r20, r16
     47a:	40 83       	st	Z, r20
     47c:	59 c0       	rjmp	.+178    	; 0x530 <setKeyState+0xec>
     47e:	60 31       	cpi	r22, 0x10	; 16
     480:	e0 f4       	brcc	.+56     	; 0x4ba <setKeyState+0x76>
     482:	70 e0       	ldi	r23, 0x00	; 0
     484:	68 50       	subi	r22, 0x08	; 8
     486:	71 09       	sbc	r23, r1
     488:	01 e0       	ldi	r16, 0x01	; 1
     48a:	10 e0       	ldi	r17, 0x00	; 0
     48c:	20 e0       	ldi	r18, 0x00	; 0
     48e:	30 e0       	ldi	r19, 0x00	; 0
     490:	06 2e       	mov	r0, r22
     492:	04 c0       	rjmp	.+8      	; 0x49c <setKeyState+0x58>
     494:	00 0f       	add	r16, r16
     496:	11 1f       	adc	r17, r17
     498:	22 1f       	adc	r18, r18
     49a:	33 1f       	adc	r19, r19
     49c:	0a 94       	dec	r0
     49e:	d2 f7       	brpl	.-12     	; 0x494 <setKeyState+0x50>
     4a0:	00 95       	com	r16
     4a2:	fc 01       	movw	r30, r24
     4a4:	21 81       	ldd	r18, Z+1	; 0x01
     4a6:	02 23       	and	r16, r18
     4a8:	50 e0       	ldi	r21, 0x00	; 0
     4aa:	02 c0       	rjmp	.+4      	; 0x4b0 <setKeyState+0x6c>
     4ac:	44 0f       	add	r20, r20
     4ae:	55 1f       	adc	r21, r21
     4b0:	6a 95       	dec	r22
     4b2:	e2 f7       	brpl	.-8      	; 0x4ac <setKeyState+0x68>
     4b4:	40 2b       	or	r20, r16
     4b6:	41 83       	std	Z+1, r20	; 0x01
     4b8:	3b c0       	rjmp	.+118    	; 0x530 <setKeyState+0xec>
     4ba:	68 31       	cpi	r22, 0x18	; 24
     4bc:	e0 f4       	brcc	.+56     	; 0x4f6 <setKeyState+0xb2>
     4be:	70 e0       	ldi	r23, 0x00	; 0
     4c0:	60 51       	subi	r22, 0x10	; 16
     4c2:	71 09       	sbc	r23, r1
     4c4:	01 e0       	ldi	r16, 0x01	; 1
     4c6:	10 e0       	ldi	r17, 0x00	; 0
     4c8:	20 e0       	ldi	r18, 0x00	; 0
     4ca:	30 e0       	ldi	r19, 0x00	; 0
     4cc:	06 2e       	mov	r0, r22
     4ce:	04 c0       	rjmp	.+8      	; 0x4d8 <setKeyState+0x94>
     4d0:	00 0f       	add	r16, r16
     4d2:	11 1f       	adc	r17, r17
     4d4:	22 1f       	adc	r18, r18
     4d6:	33 1f       	adc	r19, r19
     4d8:	0a 94       	dec	r0
     4da:	d2 f7       	brpl	.-12     	; 0x4d0 <setKeyState+0x8c>
     4dc:	00 95       	com	r16
     4de:	fc 01       	movw	r30, r24
     4e0:	22 81       	ldd	r18, Z+2	; 0x02
     4e2:	02 23       	and	r16, r18
     4e4:	50 e0       	ldi	r21, 0x00	; 0
     4e6:	02 c0       	rjmp	.+4      	; 0x4ec <setKeyState+0xa8>
     4e8:	44 0f       	add	r20, r20
     4ea:	55 1f       	adc	r21, r21
     4ec:	6a 95       	dec	r22
     4ee:	e2 f7       	brpl	.-8      	; 0x4e8 <setKeyState+0xa4>
     4f0:	40 2b       	or	r20, r16
     4f2:	42 83       	std	Z+2, r20	; 0x02
     4f4:	1d c0       	rjmp	.+58     	; 0x530 <setKeyState+0xec>
     4f6:	60 32       	cpi	r22, 0x20	; 32
     4f8:	d8 f4       	brcc	.+54     	; 0x530 <setKeyState+0xec>
     4fa:	70 e0       	ldi	r23, 0x00	; 0
     4fc:	68 51       	subi	r22, 0x18	; 24
     4fe:	71 09       	sbc	r23, r1
     500:	01 e0       	ldi	r16, 0x01	; 1
     502:	10 e0       	ldi	r17, 0x00	; 0
     504:	20 e0       	ldi	r18, 0x00	; 0
     506:	30 e0       	ldi	r19, 0x00	; 0
     508:	06 2e       	mov	r0, r22
     50a:	04 c0       	rjmp	.+8      	; 0x514 <setKeyState+0xd0>
     50c:	00 0f       	add	r16, r16
     50e:	11 1f       	adc	r17, r17
     510:	22 1f       	adc	r18, r18
     512:	33 1f       	adc	r19, r19
     514:	0a 94       	dec	r0
     516:	d2 f7       	brpl	.-12     	; 0x50c <setKeyState+0xc8>
     518:	00 95       	com	r16
     51a:	fc 01       	movw	r30, r24
     51c:	23 81       	ldd	r18, Z+3	; 0x03
     51e:	02 23       	and	r16, r18
     520:	50 e0       	ldi	r21, 0x00	; 0
     522:	02 c0       	rjmp	.+4      	; 0x528 <setKeyState+0xe4>
     524:	44 0f       	add	r20, r20
     526:	55 1f       	adc	r21, r21
     528:	6a 95       	dec	r22
     52a:	e2 f7       	brpl	.-8      	; 0x524 <setKeyState+0xe0>
     52c:	40 2b       	or	r20, r16
     52e:	43 83       	std	Z+3, r20	; 0x03
     530:	1f 91       	pop	r17
     532:	0f 91       	pop	r16
     534:	08 95       	ret

00000536 <main>:
	
	bool keyChange = false;
	uint16_t bootCounter = 200;
	
	// Init the system
	system_init();
     536:	0e 94 a4 04 	call	0x948	; 0x948 <system_init>
	touch_init();
     53a:	0e 94 30 03 	call	0x660	; 0x660 <touch_init>
	I2C_0_slave_init();
     53e:	0e 94 6f 01 	call	0x2de	; 0x2de <I2C_0_slave_init>
	
	ADC_0_enable();
     542:	0e 94 d9 03 	call	0x7b2	; 0x7b2 <ADC_0_enable>
	
	cpu_irq_enable();
     546:	78 94       	sei
//

int main(void){
	
	bool keyChange = false;
	uint16_t bootCounter = 200;
     548:	0f 2e       	mov	r0, r31
     54a:	f8 ec       	ldi	r31, 0xC8	; 200
     54c:	cf 2e       	mov	r12, r31
     54e:	d1 2c       	mov	r13, r1
     550:	f0 2d       	mov	r31, r0
		// Since we know which row we are looking at, this tells us the row,col val for any key
		// that may be down
		//
		// No debouncing right now, but shouldn't be a problem since the CPU has to poll us
		// via I2C to get the key.
		for(uint8_t row = 0; row <= 4; row++){
     552:	10 e0       	ldi	r17, 0x00	; 0
	cpu_irq_enable();
	
	while(1){

		// Drop the button change flag		
		keyChange = false;
     554:	f1 2c       	mov	r15, r1
		//
		// No debouncing right now, but shouldn't be a problem since the CPU has to poll us
		// via I2C to get the key.
		for(uint8_t row = 0; row <= 4; row++){
			
			setRow(row);
     556:	81 2f       	mov	r24, r17
     558:	0e 94 8a 01 	call	0x314	; 0x314 <setRow>
     55c:	c0 e0       	ldi	r28, 0x00	; 0
			for(int col = 0; col <= 5; col++){
				
				// Determine if there is actually a key here
				// We have 26 keys, but the grid is 5x6, so there are 4 locations with no
				// actual key
				uint8_t keyOffset = getKeyOffset(row, col);
     55e:	6c 2f       	mov	r22, r28
     560:	81 2f       	mov	r24, r17
     562:	0e 94 ff 00 	call	0x1fe	; 0x1fe <getKeyOffset>
     566:	d8 2f       	mov	r29, r24
				if(keyOffset != NO_KEY){
     568:	8f 3f       	cpi	r24, 0xFF	; 255
     56a:	99 f0       	breq	.+38     	; 0x592 <main+0x5c>
					
					// Read the value of the key at this location
					bool keyVal = readCol(col);
     56c:	8c 2f       	mov	r24, r28
     56e:	0e 94 b5 01 	call	0x36a	; 0x36a <readCol>
     572:	08 2f       	mov	r16, r24
					
					// If the state is not the same as the old state, save it and raise the key changed flag
					if(keyVal != getKeyState(keyState, keyOffset)){
     574:	6d 2f       	mov	r22, r29
     576:	8b e2       	ldi	r24, 0x2B	; 43
     578:	98 e3       	ldi	r25, 0x38	; 56
     57a:	0e 94 ed 01 	call	0x3da	; 0x3da <getKeyState>
     57e:	08 17       	cp	r16, r24
     580:	41 f0       	breq	.+16     	; 0x592 <main+0x5c>
						keyChange = true;
						setKeyState(keyState, keyOffset, keyVal);
     582:	40 2f       	mov	r20, r16
     584:	6d 2f       	mov	r22, r29
     586:	8b e2       	ldi	r24, 0x2B	; 43
     588:	98 e3       	ldi	r25, 0x38	; 56
     58a:	0e 94 22 02 	call	0x444	; 0x444 <setKeyState>
					// Read the value of the key at this location
					bool keyVal = readCol(col);
					
					// If the state is not the same as the old state, save it and raise the key changed flag
					if(keyVal != getKeyState(keyState, keyOffset)){
						keyChange = true;
     58e:	ff 24       	eor	r15, r15
     590:	f3 94       	inc	r15
     592:	cf 5f       	subi	r28, 0xFF	; 255
		for(uint8_t row = 0; row <= 4; row++){
			
			setRow(row);
			
			// OK, scan the cols
			for(int col = 0; col <= 5; col++){
     594:	c6 30       	cpi	r28, 0x06	; 6
     596:	19 f7       	brne	.-58     	; 0x55e <main+0x28>
		// Since we know which row we are looking at, this tells us the row,col val for any key
		// that may be down
		//
		// No debouncing right now, but shouldn't be a problem since the CPU has to poll us
		// via I2C to get the key.
		for(uint8_t row = 0; row <= 4; row++){
     598:	1f 5f       	subi	r17, 0xFF	; 255
     59a:	15 30       	cpi	r17, 0x05	; 5
     59c:	e1 f6       	brne	.-72     	; 0x556 <main+0x20>
				}
			}
		}
		
		// Now the cap touch button
		touch_process();
     59e:	0e 94 58 03 	call	0x6b0	; 0x6b0 <touch_process>
		if(measurement_done_touch == 1){
     5a2:	80 91 32 38 	lds	r24, 0x3832	; 0x803832 <measurement_done_touch>
     5a6:	81 30       	cpi	r24, 0x01	; 1
     5a8:	01 f5       	brne	.+64     	; 0x5ea <main+0xb4>
			measurement_done_touch = 0;
     5aa:	10 92 32 38 	sts	0x3832, r1	; 0x803832 <measurement_done_touch>
			
			// Grab the old value
			bool oldVal = getKeyState(keyState, KEY_HAX);
     5ae:	6a e1       	ldi	r22, 0x1A	; 26
     5b0:	8b e2       	ldi	r24, 0x2B	; 43
     5b2:	98 e3       	ldi	r25, 0x38	; 56
     5b4:	0e 94 ed 01 	call	0x3da	; 0x3da <getKeyState>
     5b8:	c8 2f       	mov	r28, r24
			bool newVal;
			
			// Determine the current value.  We only have one cap sense button, which is id 0
			if((get_sensor_state(0) & KEY_TOUCHED_MASK) != 0){
     5ba:	80 e0       	ldi	r24, 0x00	; 0
     5bc:	90 e0       	ldi	r25, 0x00	; 0
     5be:	0e 94 9e 03 	call	0x73c	; 0x73c <get_sensor_state>
     5c2:	48 2f       	mov	r20, r24
     5c4:	44 1f       	adc	r20, r20
     5c6:	44 27       	eor	r20, r20
     5c8:	44 1f       	adc	r20, r20
			else{
				// No touch
				newVal = false;
			}
			
			if(oldVal != newVal){
     5ca:	c4 17       	cp	r28, r20
     5cc:	71 f0       	breq	.+28     	; 0x5ea <main+0xb4>
				// Cap touch has changed
				setKeyState(keyState, KEY_HAX, newVal);
     5ce:	6a e1       	ldi	r22, 0x1A	; 26
     5d0:	8b e2       	ldi	r24, 0x2B	; 43
     5d2:	98 e3       	ldi	r25, 0x38	; 56
     5d4:	0e 94 22 02 	call	0x444	; 0x444 <setKeyState>
			
		}
		
		// Get the touch screen values
		// 4 is X, 5 is Y - but the screen is rotated 90 degrees so we swap the two
		keyState[4] = ts_getY();
     5d8:	0e 94 5d 00 	call	0xba	; 0xba <ts_getY>
     5dc:	cb e2       	ldi	r28, 0x2B	; 43
     5de:	d8 e3       	ldi	r29, 0x38	; 56
     5e0:	8c 83       	std	Y+4, r24	; 0x04
		keyState[5] = ts_getX();
     5e2:	0e 94 ae 00 	call	0x15c	; 0x15c <ts_getX>
     5e6:	8d 83       	std	Y+5, r24	; 0x05
     5e8:	0a c0       	rjmp	.+20     	; 0x5fe <main+0xc8>
			
		}
		
		// Get the touch screen values
		// 4 is X, 5 is Y - but the screen is rotated 90 degrees so we swap the two
		keyState[4] = ts_getY();
     5ea:	0e 94 5d 00 	call	0xba	; 0xba <ts_getY>
     5ee:	cb e2       	ldi	r28, 0x2B	; 43
     5f0:	d8 e3       	ldi	r29, 0x38	; 56
     5f2:	8c 83       	std	Y+4, r24	; 0x04
		keyState[5] = ts_getX();
     5f4:	0e 94 ae 00 	call	0x15c	; 0x15c <ts_getX>
     5f8:	8d 83       	std	Y+5, r24	; 0x05
	
		// If a key has changed, pull the key change pin high to signal the BMD to scan us for the key state 
		if(keyChange){
     5fa:	ff 20       	and	r15, r15
     5fc:	61 f0       	breq	.+24     	; 0x616 <main+0xe0>
 *                  false = Pin level set to "low" state
 */
static inline void PORTC_set_pin_level(const uint8_t pin, const bool level)
{
	if (level == true) {
		VPORTC.OUT |= (1 << pin);
     5fe:	4d 9a       	sbi	0x09, 5	; 9
	#else
		//round up by default
		__ticks_dc = (uint32_t)(ceil(fabs(__tmp)));
	#endif

	__builtin_avr_delay_cycles(__ticks_dc);
     600:	8f e4       	ldi	r24, 0x4F	; 79
     602:	93 ec       	ldi	r25, 0xC3	; 195
     604:	01 97       	sbiw	r24, 0x01	; 1
     606:	f1 f7       	brne	.-4      	; 0x604 <main+0xce>
     608:	00 c0       	rjmp	.+0      	; 0x60a <main+0xd4>
     60a:	00 00       	nop
			}
		}
		// Slight delay between reads, mostly to make sure the key change flag stays set for at least this long
		_delay_ms(10);
		
		if(bootCounter > 0){
     60c:	c1 14       	cp	r12, r1
     60e:	d1 04       	cpc	r13, r1
     610:	09 f4       	brne	.+2      	; 0x614 <main+0xde>
     612:	9f cf       	rjmp	.-194    	; 0x552 <main+0x1c>
     614:	0b c0       	rjmp	.+22     	; 0x62c <main+0xf6>
		if(keyChange){
			KEY_INT_set_level(true);
		}
		else{
			// At boot time, if a key is down, hold the interrupt output long enough for the BMD to boot and notice it
			if(bootCounter == 0){
     616:	c1 14       	cp	r12, r1
     618:	d1 04       	cpc	r13, r1
     61a:	61 f4       	brne	.+24     	; 0x634 <main+0xfe>
	} else {
		VPORTC.OUT &= ~(1 << pin);
     61c:	4d 98       	cbi	0x09, 5	; 9
     61e:	8f e4       	ldi	r24, 0x4F	; 79
     620:	93 ec       	ldi	r25, 0xC3	; 195
     622:	01 97       	sbiw	r24, 0x01	; 1
     624:	f1 f7       	brne	.-4      	; 0x622 <main+0xec>
     626:	00 c0       	rjmp	.+0      	; 0x628 <main+0xf2>
     628:	00 00       	nop
     62a:	93 cf       	rjmp	.-218    	; 0x552 <main+0x1c>
		}
		// Slight delay between reads, mostly to make sure the key change flag stays set for at least this long
		_delay_ms(10);
		
		if(bootCounter > 0){
			bootCounter--;
     62c:	91 e0       	ldi	r25, 0x01	; 1
     62e:	c9 1a       	sub	r12, r25
     630:	d1 08       	sbc	r13, r1
     632:	8f cf       	rjmp	.-226    	; 0x552 <main+0x1c>
     634:	8f e4       	ldi	r24, 0x4F	; 79
     636:	93 ec       	ldi	r25, 0xC3	; 195
     638:	01 97       	sbiw	r24, 0x01	; 1
     63a:	f1 f7       	brne	.-4      	; 0x638 <main+0x102>
     63c:	00 c0       	rjmp	.+0      	; 0x63e <main+0x108>
     63e:	00 00       	nop
     640:	f5 cf       	rjmp	.-22     	; 0x62c <main+0xf6>

00000642 <qtm_measure_complete_callback>:
     642:	81 e0       	ldi	r24, 0x01	; 1
     644:	80 93 33 38 	sts	0x3833, r24	; 0x803833 <touch_postprocess_request>
     648:	08 95       	ret

0000064a <Timer_set_period>:
     64a:	e0 e4       	ldi	r30, 0x40	; 64
     64c:	f1 e0       	ldi	r31, 0x01	; 1
     64e:	91 81       	ldd	r25, Z+1	; 0x01
     650:	92 fd       	sbrc	r25, 2
     652:	fd cf       	rjmp	.-6      	; 0x64e <Timer_set_period+0x4>
     654:	90 e0       	ldi	r25, 0x00	; 0
     656:	80 93 4a 01 	sts	0x014A, r24	; 0x80014a <gain_setting_int_cap+0x7f64d4>
     65a:	90 93 4b 01 	sts	0x014B, r25	; 0x80014b <gain_setting_int_cap+0x7f64d5>
     65e:	08 95       	ret

00000660 <touch_init>:
     660:	80 e2       	ldi	r24, 0x20	; 32
     662:	0e 94 25 03 	call	0x64a	; 0x64a <Timer_set_period>
     666:	e7 e1       	ldi	r30, 0x17	; 23
     668:	f4 e0       	ldi	r31, 0x04	; 4
     66a:	80 81       	ld	r24, Z
     66c:	87 7f       	andi	r24, 0xF7	; 247
     66e:	80 83       	st	Z, r24
     670:	80 81       	ld	r24, Z
     672:	88 7f       	andi	r24, 0xF8	; 248
     674:	84 60       	ori	r24, 0x04	; 4
     676:	80 83       	st	Z, r24
     678:	85 e1       	ldi	r24, 0x15	; 21
     67a:	98 e3       	ldi	r25, 0x38	; 56
     67c:	0e 94 ce 0c 	call	0x199c	; 0x199c <qtm_ptc_init_acquisition_module>
     680:	8c e4       	ldi	r24, 0x4C	; 76
     682:	98 e3       	ldi	r25, 0x38	; 56
     684:	0e 94 14 0d 	call	0x1a28	; 0x1a28 <qtm_ptc_qtlib_assign_signal_memory>
     688:	60 e0       	ldi	r22, 0x00	; 0
     68a:	70 e0       	ldi	r23, 0x00	; 0
     68c:	85 e1       	ldi	r24, 0x15	; 21
     68e:	98 e3       	ldi	r25, 0x38	; 56
     690:	0e 94 86 0d 	call	0x1b0c	; 0x1b0c <qtm_enable_sensor_node>
     694:	60 e0       	ldi	r22, 0x00	; 0
     696:	70 e0       	ldi	r23, 0x00	; 0
     698:	85 e1       	ldi	r24, 0x15	; 21
     69a:	98 e3       	ldi	r25, 0x38	; 56
     69c:	0e 94 a5 0d 	call	0x1b4a	; 0x1b4a <qtm_calibrate_sensor_node>
     6a0:	47 e4       	ldi	r20, 0x47	; 71
     6a2:	58 e3       	ldi	r21, 0x38	; 56
     6a4:	60 e0       	ldi	r22, 0x00	; 0
     6a6:	80 e0       	ldi	r24, 0x00	; 0
     6a8:	98 e3       	ldi	r25, 0x38	; 56
     6aa:	0e 94 cb 06 	call	0xd96	; 0xd96 <qtm_init_sensor_key>
     6ae:	08 95       	ret

000006b0 <touch_process>:
     6b0:	80 91 34 38 	lds	r24, 0x3834	; 0x803834 <time_to_measure_touch_flag>
     6b4:	81 30       	cpi	r24, 0x01	; 1
     6b6:	51 f4       	brne	.+20     	; 0x6cc <touch_process+0x1c>
     6b8:	61 e2       	ldi	r22, 0x21	; 33
     6ba:	73 e0       	ldi	r23, 0x03	; 3
     6bc:	85 e1       	ldi	r24, 0x15	; 21
     6be:	98 e3       	ldi	r25, 0x38	; 56
     6c0:	0e 94 1e 0d 	call	0x1a3c	; 0x1a3c <qtm_ptc_start_measurement_seq>
     6c4:	81 11       	cpse	r24, r1
     6c6:	02 c0       	rjmp	.+4      	; 0x6cc <touch_process+0x1c>
     6c8:	10 92 34 38 	sts	0x3834, r1	; 0x803834 <time_to_measure_touch_flag>
     6cc:	80 91 33 38 	lds	r24, 0x3833	; 0x803833 <touch_postprocess_request>
     6d0:	81 30       	cpi	r24, 0x01	; 1
     6d2:	09 f5       	brne	.+66     	; 0x716 <touch_process+0x66>
     6d4:	10 92 33 38 	sts	0x3833, r1	; 0x803833 <touch_postprocess_request>
     6d8:	0e 94 50 0b 	call	0x16a0	; 0x16a0 <qtm_acquisition_process>
     6dc:	81 11       	cpse	r24, r1
     6de:	0a c0       	rjmp	.+20     	; 0x6f4 <touch_process+0x44>
     6e0:	80 e0       	ldi	r24, 0x00	; 0
     6e2:	98 e3       	ldi	r25, 0x38	; 56
     6e4:	0e 94 ea 06 	call	0xdd4	; 0xdd4 <qtm_key_sensors_process>
     6e8:	88 23       	and	r24, r24
     6ea:	39 f0       	breq	.+14     	; 0x6fa <touch_process+0x4a>
     6ec:	82 e0       	ldi	r24, 0x02	; 2
     6ee:	80 93 31 38 	sts	0x3831, r24	; 0x803831 <module_error_code>
     6f2:	03 c0       	rjmp	.+6      	; 0x6fa <touch_process+0x4a>
     6f4:	81 e0       	ldi	r24, 0x01	; 1
     6f6:	80 93 31 38 	sts	0x3831, r24	; 0x803831 <module_error_code>
     6fa:	e0 91 00 38 	lds	r30, 0x3800	; 0x803800 <__DATA_REGION_ORIGIN__>
     6fe:	f0 91 01 38 	lds	r31, 0x3801	; 0x803801 <__DATA_REGION_ORIGIN__+0x1>
     702:	80 81       	ld	r24, Z
     704:	88 23       	and	r24, r24
     706:	24 f4       	brge	.+8      	; 0x710 <touch_process+0x60>
     708:	81 e0       	ldi	r24, 0x01	; 1
     70a:	80 93 34 38 	sts	0x3834, r24	; 0x803834 <time_to_measure_touch_flag>
     70e:	08 95       	ret
     710:	81 e0       	ldi	r24, 0x01	; 1
     712:	80 93 32 38 	sts	0x3832, r24	; 0x803832 <measurement_done_touch>
     716:	08 95       	ret

00000718 <touch_timer_handler>:
     718:	80 91 46 38 	lds	r24, 0x3846	; 0x803846 <interrupt_cnt>
     71c:	8f 5f       	subi	r24, 0xFF	; 255
     71e:	84 31       	cpi	r24, 0x14	; 20
     720:	18 f4       	brcc	.+6      	; 0x728 <touch_timer_handler+0x10>
     722:	80 93 46 38 	sts	0x3846, r24	; 0x803846 <interrupt_cnt>
     726:	08 95       	ret
     728:	10 92 46 38 	sts	0x3846, r1	; 0x803846 <interrupt_cnt>
     72c:	81 e0       	ldi	r24, 0x01	; 1
     72e:	80 93 34 38 	sts	0x3834, r24	; 0x803834 <time_to_measure_touch_flag>
     732:	84 e1       	ldi	r24, 0x14	; 20
     734:	90 e0       	ldi	r25, 0x00	; 0
     736:	0e 94 c0 06 	call	0xd80	; 0xd80 <qtm_update_qtlib_timer>
     73a:	08 95       	ret

0000073c <get_sensor_state>:
     73c:	9c 01       	movw	r18, r24
     73e:	22 0f       	add	r18, r18
     740:	33 1f       	adc	r19, r19
     742:	82 0f       	add	r24, r18
     744:	93 1f       	adc	r25, r19
     746:	88 0f       	add	r24, r24
     748:	99 1f       	adc	r25, r25
     74a:	e0 91 04 38 	lds	r30, 0x3804	; 0x803804 <__DATA_REGION_ORIGIN__+0x4>
     74e:	f0 91 05 38 	lds	r31, 0x3805	; 0x803805 <__DATA_REGION_ORIGIN__+0x5>
     752:	e8 0f       	add	r30, r24
     754:	f9 1f       	adc	r31, r25
     756:	80 81       	ld	r24, Z
     758:	08 95       	ret

0000075a <__vector_20>:
     75a:	1f 92       	push	r1
     75c:	0f 92       	push	r0
     75e:	0f b6       	in	r0, 0x3f	; 63
     760:	0f 92       	push	r0
     762:	11 24       	eor	r1, r1
     764:	2f 93       	push	r18
     766:	3f 93       	push	r19
     768:	4f 93       	push	r20
     76a:	5f 93       	push	r21
     76c:	6f 93       	push	r22
     76e:	7f 93       	push	r23
     770:	8f 93       	push	r24
     772:	9f 93       	push	r25
     774:	af 93       	push	r26
     776:	bf 93       	push	r27
     778:	ef 93       	push	r30
     77a:	ff 93       	push	r31
     77c:	0e 94 e6 0d 	call	0x1bcc	; 0x1bcc <qtm_t161x_ptc_handler_eoc>
     780:	ff 91       	pop	r31
     782:	ef 91       	pop	r30
     784:	bf 91       	pop	r27
     786:	af 91       	pop	r26
     788:	9f 91       	pop	r25
     78a:	8f 91       	pop	r24
     78c:	7f 91       	pop	r23
     78e:	6f 91       	pop	r22
     790:	5f 91       	pop	r21
     792:	4f 91       	pop	r20
     794:	3f 91       	pop	r19
     796:	2f 91       	pop	r18
     798:	0f 90       	pop	r0
     79a:	0f be       	out	0x3f, r0	; 63
     79c:	0f 90       	pop	r0
     79e:	1f 90       	pop	r1
     7a0:	18 95       	reti

000007a2 <ADC_0_init>:
     7a2:	e0 e4       	ldi	r30, 0x40	; 64
     7a4:	f6 e0       	ldi	r31, 0x06	; 6
     7a6:	82 e1       	ldi	r24, 0x12	; 18
     7a8:	82 83       	std	Z+2, r24	; 0x02
     7aa:	85 e0       	ldi	r24, 0x05	; 5
     7ac:	80 83       	st	Z, r24
     7ae:	80 e0       	ldi	r24, 0x00	; 0
     7b0:	08 95       	ret

000007b2 <ADC_0_enable>:
     7b2:	e0 e4       	ldi	r30, 0x40	; 64
     7b4:	f6 e0       	ldi	r31, 0x06	; 6
     7b6:	80 81       	ld	r24, Z
     7b8:	81 60       	ori	r24, 0x01	; 1
     7ba:	80 83       	st	Z, r24
     7bc:	08 95       	ret

000007be <ADC_0_is_conversion_done>:
     7be:	80 91 4b 06 	lds	r24, 0x064B	; 0x80064b <gain_setting_int_cap+0x7f69d5>
     7c2:	81 70       	andi	r24, 0x01	; 1
     7c4:	08 95       	ret

000007c6 <ADC_0_get_conversion>:
     7c6:	e0 e4       	ldi	r30, 0x40	; 64
     7c8:	f6 e0       	ldi	r31, 0x06	; 6
     7ca:	86 83       	std	Z+6, r24	; 0x06
     7cc:	81 e0       	ldi	r24, 0x01	; 1
     7ce:	80 87       	std	Z+8, r24	; 0x08
     7d0:	0e 94 df 03 	call	0x7be	; 0x7be <ADC_0_is_conversion_done>
     7d4:	88 23       	and	r24, r24
     7d6:	e1 f3       	breq	.-8      	; 0x7d0 <ADC_0_get_conversion+0xa>
     7d8:	e0 e4       	ldi	r30, 0x40	; 64
     7da:	f6 e0       	ldi	r31, 0x06	; 6
     7dc:	20 89       	ldd	r18, Z+16	; 0x10
     7de:	31 89       	ldd	r19, Z+17	; 0x11
     7e0:	93 85       	ldd	r25, Z+11	; 0x0b
     7e2:	91 60       	ori	r25, 0x01	; 1
     7e4:	93 87       	std	Z+11, r25	; 0x0b
     7e6:	c9 01       	movw	r24, r18
     7e8:	08 95       	ret

000007ea <ADC_0_get_resolution>:
     7ea:	80 91 40 06 	lds	r24, 0x0640	; 0x800640 <gain_setting_int_cap+0x7f69ca>
     7ee:	82 fd       	sbrc	r24, 2
     7f0:	02 c0       	rjmp	.+4      	; 0x7f6 <ADC_0_get_resolution+0xc>
     7f2:	8a e0       	ldi	r24, 0x0A	; 10
     7f4:	08 95       	ret
     7f6:	88 e0       	ldi	r24, 0x08	; 8
     7f8:	08 95       	ret

000007fa <__vector_22>:
     7fa:	1f 92       	push	r1
     7fc:	0f 92       	push	r0
     7fe:	0f b6       	in	r0, 0x3f	; 63
     800:	0f 92       	push	r0
     802:	11 24       	eor	r1, r1
     804:	2f 93       	push	r18
     806:	3f 93       	push	r19
     808:	4f 93       	push	r20
     80a:	5f 93       	push	r21
     80c:	6f 93       	push	r22
     80e:	7f 93       	push	r23
     810:	8f 93       	push	r24
     812:	9f 93       	push	r25
     814:	af 93       	push	r26
     816:	bf 93       	push	r27
     818:	ef 93       	push	r30
     81a:	ff 93       	push	r31
     81c:	e0 e4       	ldi	r30, 0x40	; 64
     81e:	f6 e0       	ldi	r31, 0x06	; 6
     820:	83 85       	ldd	r24, Z+11	; 0x0b
     822:	81 60       	ori	r24, 0x01	; 1
     824:	83 87       	std	Z+11, r24	; 0x0b
     826:	e0 91 35 38 	lds	r30, 0x3835	; 0x803835 <ADC_0_cb>
     82a:	f0 91 36 38 	lds	r31, 0x3836	; 0x803836 <ADC_0_cb+0x1>
     82e:	30 97       	sbiw	r30, 0x00	; 0
     830:	09 f0       	breq	.+2      	; 0x834 <__DATA_REGION_LENGTH__+0x34>
     832:	09 95       	icall
     834:	ff 91       	pop	r31
     836:	ef 91       	pop	r30
     838:	bf 91       	pop	r27
     83a:	af 91       	pop	r26
     83c:	9f 91       	pop	r25
     83e:	8f 91       	pop	r24
     840:	7f 91       	pop	r23
     842:	6f 91       	pop	r22
     844:	5f 91       	pop	r21
     846:	4f 91       	pop	r20
     848:	3f 91       	pop	r19
     84a:	2f 91       	pop	r18
     84c:	0f 90       	pop	r0
     84e:	0f be       	out	0x3f, r0	; 63
     850:	0f 90       	pop	r0
     852:	1f 90       	pop	r1
     854:	18 95       	reti

00000856 <BOD_init>:
     856:	80 e0       	ldi	r24, 0x00	; 0
     858:	08 95       	ret

0000085a <CLKCTRL_init>:
     85a:	40 e0       	ldi	r20, 0x00	; 0
     85c:	68 ed       	ldi	r22, 0xD8	; 216
     85e:	81 e6       	ldi	r24, 0x61	; 97
     860:	90 e0       	ldi	r25, 0x00	; 0
     862:	0e 94 42 06 	call	0xc84	; 0xc84 <protected_write_io>
     866:	80 e0       	ldi	r24, 0x00	; 0
     868:	08 95       	ret

0000086a <CPUINT_init>:
     86a:	78 94       	sei
     86c:	80 e0       	ldi	r24, 0x00	; 0
     86e:	08 95       	ret

00000870 <mcu_init>:
     870:	e0 e1       	ldi	r30, 0x10	; 16
     872:	f4 e0       	ldi	r31, 0x04	; 4
     874:	80 81       	ld	r24, Z
     876:	88 60       	ori	r24, 0x08	; 8
     878:	81 93       	st	Z+, r24
     87a:	e8 31       	cpi	r30, 0x18	; 24
     87c:	84 e0       	ldi	r24, 0x04	; 4
     87e:	f8 07       	cpc	r31, r24
     880:	c9 f7       	brne	.-14     	; 0x874 <mcu_init+0x4>
     882:	e0 e3       	ldi	r30, 0x30	; 48
     884:	f4 e0       	ldi	r31, 0x04	; 4
     886:	80 81       	ld	r24, Z
     888:	88 60       	ori	r24, 0x08	; 8
     88a:	81 93       	st	Z+, r24
     88c:	e8 33       	cpi	r30, 0x38	; 56
     88e:	84 e0       	ldi	r24, 0x04	; 4
     890:	f8 07       	cpc	r31, r24
     892:	c9 f7       	brne	.-14     	; 0x886 <mcu_init+0x16>
     894:	e0 e5       	ldi	r30, 0x50	; 80
     896:	f4 e0       	ldi	r31, 0x04	; 4
     898:	80 81       	ld	r24, Z
     89a:	88 60       	ori	r24, 0x08	; 8
     89c:	81 93       	st	Z+, r24
     89e:	e8 35       	cpi	r30, 0x58	; 88
     8a0:	84 e0       	ldi	r24, 0x04	; 4
     8a2:	f8 07       	cpc	r31, r24
     8a4:	c9 f7       	brne	.-14     	; 0x898 <mcu_init+0x28>
     8a6:	08 95       	ret

000008a8 <ADC_0_initialization>:
     8a8:	e0 e5       	ldi	r30, 0x50	; 80
     8aa:	f4 e0       	ldi	r31, 0x04	; 4
     8ac:	80 81       	ld	r24, Z
     8ae:	88 7f       	andi	r24, 0xF8	; 248
     8b0:	84 60       	ori	r24, 0x04	; 4
     8b2:	80 83       	st	Z, r24
     8b4:	80 81       	ld	r24, Z
     8b6:	87 7f       	andi	r24, 0xF7	; 247
     8b8:	80 83       	st	Z, r24
     8ba:	e1 e5       	ldi	r30, 0x51	; 81
     8bc:	f4 e0       	ldi	r31, 0x04	; 4
     8be:	80 81       	ld	r24, Z
     8c0:	88 7f       	andi	r24, 0xF8	; 248
     8c2:	84 60       	ori	r24, 0x04	; 4
     8c4:	80 83       	st	Z, r24
     8c6:	80 81       	ld	r24, Z
     8c8:	87 7f       	andi	r24, 0xF7	; 247
     8ca:	80 83       	st	Z, r24
     8cc:	4a 98       	cbi	0x09, 2	; 9
     8ce:	e2 e5       	ldi	r30, 0x52	; 82
     8d0:	f4 e0       	ldi	r31, 0x04	; 4
     8d2:	80 81       	ld	r24, Z
     8d4:	88 60       	ori	r24, 0x08	; 8
     8d6:	80 83       	st	Z, r24
     8d8:	80 81       	ld	r24, Z
     8da:	87 7f       	andi	r24, 0xF7	; 247
     8dc:	80 83       	st	Z, r24
     8de:	80 81       	ld	r24, Z
     8e0:	8f 77       	andi	r24, 0x7F	; 127
     8e2:	80 83       	st	Z, r24
     8e4:	80 81       	ld	r24, Z
     8e6:	88 7f       	andi	r24, 0xF8	; 248
     8e8:	80 83       	st	Z, r24
     8ea:	4b 98       	cbi	0x09, 3	; 9
     8ec:	e3 e5       	ldi	r30, 0x53	; 83
     8ee:	f4 e0       	ldi	r31, 0x04	; 4
     8f0:	80 81       	ld	r24, Z
     8f2:	88 60       	ori	r24, 0x08	; 8
     8f4:	80 83       	st	Z, r24
     8f6:	80 81       	ld	r24, Z
     8f8:	87 7f       	andi	r24, 0xF7	; 247
     8fa:	80 83       	st	Z, r24
     8fc:	80 81       	ld	r24, Z
     8fe:	8f 77       	andi	r24, 0x7F	; 127
     900:	80 83       	st	Z, r24
     902:	80 81       	ld	r24, Z
     904:	88 7f       	andi	r24, 0xF8	; 248
     906:	80 83       	st	Z, r24
     908:	0e 94 d1 03 	call	0x7a2	; 0x7a2 <ADC_0_init>
     90c:	08 95       	ret

0000090e <I2C_0_initialization>:
     90e:	28 98       	cbi	0x05, 0	; 5
     910:	20 9a       	sbi	0x04, 0	; 4
     912:	e0 e3       	ldi	r30, 0x30	; 48
     914:	f4 e0       	ldi	r31, 0x04	; 4
     916:	80 81       	ld	r24, Z
     918:	87 7f       	andi	r24, 0xF7	; 247
     91a:	80 83       	st	Z, r24
     91c:	80 81       	ld	r24, Z
     91e:	8f 77       	andi	r24, 0x7F	; 127
     920:	80 83       	st	Z, r24
     922:	80 81       	ld	r24, Z
     924:	88 7f       	andi	r24, 0xF8	; 248
     926:	80 83       	st	Z, r24
     928:	29 98       	cbi	0x05, 1	; 5
     92a:	21 9a       	sbi	0x04, 1	; 4
     92c:	e1 e3       	ldi	r30, 0x31	; 49
     92e:	f4 e0       	ldi	r31, 0x04	; 4
     930:	80 81       	ld	r24, Z
     932:	87 7f       	andi	r24, 0xF7	; 247
     934:	80 83       	st	Z, r24
     936:	80 81       	ld	r24, Z
     938:	8f 77       	andi	r24, 0x7F	; 127
     93a:	80 83       	st	Z, r24
     93c:	80 81       	ld	r24, Z
     93e:	88 7f       	andi	r24, 0xF8	; 248
     940:	80 83       	st	Z, r24
     942:	0e 94 4d 05 	call	0xa9a	; 0xa9a <I2C_0_init>
     946:	08 95       	ret

00000948 <system_init>:
     948:	0e 94 38 04 	call	0x870	; 0x870 <mcu_init>
     94c:	0d 9a       	sbi	0x01, 5	; 1
     94e:	05 9a       	sbi	0x00, 5	; 0
     950:	e5 e1       	ldi	r30, 0x15	; 21
     952:	f4 e0       	ldi	r31, 0x04	; 4
     954:	80 81       	ld	r24, Z
     956:	87 7f       	andi	r24, 0xF7	; 247
     958:	80 83       	st	Z, r24
     95a:	80 81       	ld	r24, Z
     95c:	8f 77       	andi	r24, 0x7F	; 127
     95e:	80 83       	st	Z, r24
     960:	80 81       	ld	r24, Z
     962:	88 7f       	andi	r24, 0xF8	; 248
     964:	80 83       	st	Z, r24
     966:	0c 9a       	sbi	0x01, 4	; 1
     968:	04 9a       	sbi	0x00, 4	; 0
     96a:	e4 e1       	ldi	r30, 0x14	; 20
     96c:	f4 e0       	ldi	r31, 0x04	; 4
     96e:	80 81       	ld	r24, Z
     970:	87 7f       	andi	r24, 0xF7	; 247
     972:	80 83       	st	Z, r24
     974:	80 81       	ld	r24, Z
     976:	8f 77       	andi	r24, 0x7F	; 127
     978:	80 83       	st	Z, r24
     97a:	80 81       	ld	r24, Z
     97c:	88 7f       	andi	r24, 0xF8	; 248
     97e:	80 83       	st	Z, r24
     980:	0b 9a       	sbi	0x01, 3	; 1
     982:	03 9a       	sbi	0x00, 3	; 0
     984:	e3 e1       	ldi	r30, 0x13	; 19
     986:	f4 e0       	ldi	r31, 0x04	; 4
     988:	80 81       	ld	r24, Z
     98a:	87 7f       	andi	r24, 0xF7	; 247
     98c:	80 83       	st	Z, r24
     98e:	80 81       	ld	r24, Z
     990:	8f 77       	andi	r24, 0x7F	; 127
     992:	80 83       	st	Z, r24
     994:	80 81       	ld	r24, Z
     996:	88 7f       	andi	r24, 0xF8	; 248
     998:	80 83       	st	Z, r24
     99a:	0a 9a       	sbi	0x01, 2	; 1
     99c:	02 9a       	sbi	0x00, 2	; 0
     99e:	e2 e1       	ldi	r30, 0x12	; 18
     9a0:	f4 e0       	ldi	r31, 0x04	; 4
     9a2:	80 81       	ld	r24, Z
     9a4:	87 7f       	andi	r24, 0xF7	; 247
     9a6:	80 83       	st	Z, r24
     9a8:	80 81       	ld	r24, Z
     9aa:	8f 77       	andi	r24, 0x7F	; 127
     9ac:	80 83       	st	Z, r24
     9ae:	80 81       	ld	r24, Z
     9b0:	88 7f       	andi	r24, 0xF8	; 248
     9b2:	80 83       	st	Z, r24
     9b4:	09 9a       	sbi	0x01, 1	; 1
     9b6:	01 9a       	sbi	0x00, 1	; 0
     9b8:	e1 e1       	ldi	r30, 0x11	; 17
     9ba:	f4 e0       	ldi	r31, 0x04	; 4
     9bc:	80 81       	ld	r24, Z
     9be:	87 7f       	andi	r24, 0xF7	; 247
     9c0:	80 83       	st	Z, r24
     9c2:	80 81       	ld	r24, Z
     9c4:	8f 77       	andi	r24, 0x7F	; 127
     9c6:	80 83       	st	Z, r24
     9c8:	80 81       	ld	r24, Z
     9ca:	88 7f       	andi	r24, 0xF8	; 248
     9cc:	80 83       	st	Z, r24
     9ce:	2a 98       	cbi	0x05, 2	; 5
     9d0:	22 98       	cbi	0x04, 2	; 4
     9d2:	e2 e3       	ldi	r30, 0x32	; 50
     9d4:	f4 e0       	ldi	r31, 0x04	; 4
     9d6:	80 81       	ld	r24, Z
     9d8:	88 60       	ori	r24, 0x08	; 8
     9da:	80 83       	st	Z, r24
     9dc:	80 81       	ld	r24, Z
     9de:	8f 77       	andi	r24, 0x7F	; 127
     9e0:	80 83       	st	Z, r24
     9e2:	80 81       	ld	r24, Z
     9e4:	88 7f       	andi	r24, 0xF8	; 248
     9e6:	80 83       	st	Z, r24
     9e8:	2e 98       	cbi	0x05, 6	; 5
     9ea:	26 98       	cbi	0x04, 6	; 4
     9ec:	e6 e3       	ldi	r30, 0x36	; 54
     9ee:	f4 e0       	ldi	r31, 0x04	; 4
     9f0:	80 81       	ld	r24, Z
     9f2:	88 60       	ori	r24, 0x08	; 8
     9f4:	80 83       	st	Z, r24
     9f6:	80 81       	ld	r24, Z
     9f8:	8f 77       	andi	r24, 0x7F	; 127
     9fa:	80 83       	st	Z, r24
     9fc:	80 81       	ld	r24, Z
     9fe:	88 7f       	andi	r24, 0xF8	; 248
     a00:	80 83       	st	Z, r24
     a02:	2d 98       	cbi	0x05, 5	; 5
     a04:	25 98       	cbi	0x04, 5	; 4
     a06:	e5 e3       	ldi	r30, 0x35	; 53
     a08:	f4 e0       	ldi	r31, 0x04	; 4
     a0a:	80 81       	ld	r24, Z
     a0c:	88 60       	ori	r24, 0x08	; 8
     a0e:	80 83       	st	Z, r24
     a10:	80 81       	ld	r24, Z
     a12:	8f 77       	andi	r24, 0x7F	; 127
     a14:	80 83       	st	Z, r24
     a16:	80 81       	ld	r24, Z
     a18:	88 7f       	andi	r24, 0xF8	; 248
     a1a:	80 83       	st	Z, r24
     a1c:	2f 98       	cbi	0x05, 7	; 5
     a1e:	27 98       	cbi	0x04, 7	; 4
     a20:	e7 e3       	ldi	r30, 0x37	; 55
     a22:	f4 e0       	ldi	r31, 0x04	; 4
     a24:	80 81       	ld	r24, Z
     a26:	88 60       	ori	r24, 0x08	; 8
     a28:	80 83       	st	Z, r24
     a2a:	80 81       	ld	r24, Z
     a2c:	8f 77       	andi	r24, 0x7F	; 127
     a2e:	80 83       	st	Z, r24
     a30:	80 81       	ld	r24, Z
     a32:	88 7f       	andi	r24, 0xF8	; 248
     a34:	80 83       	st	Z, r24
     a36:	2c 98       	cbi	0x05, 4	; 5
     a38:	24 98       	cbi	0x04, 4	; 4
     a3a:	e4 e3       	ldi	r30, 0x34	; 52
     a3c:	f4 e0       	ldi	r31, 0x04	; 4
     a3e:	80 81       	ld	r24, Z
     a40:	88 60       	ori	r24, 0x08	; 8
     a42:	80 83       	st	Z, r24
     a44:	80 81       	ld	r24, Z
     a46:	8f 77       	andi	r24, 0x7F	; 127
     a48:	80 83       	st	Z, r24
     a4a:	80 81       	ld	r24, Z
     a4c:	88 7f       	andi	r24, 0xF8	; 248
     a4e:	80 83       	st	Z, r24
     a50:	2b 98       	cbi	0x05, 3	; 5
     a52:	23 98       	cbi	0x04, 3	; 4
     a54:	e3 e3       	ldi	r30, 0x33	; 51
     a56:	f4 e0       	ldi	r31, 0x04	; 4
     a58:	80 81       	ld	r24, Z
     a5a:	88 60       	ori	r24, 0x08	; 8
     a5c:	80 83       	st	Z, r24
     a5e:	80 81       	ld	r24, Z
     a60:	8f 77       	andi	r24, 0x7F	; 127
     a62:	80 83       	st	Z, r24
     a64:	80 81       	ld	r24, Z
     a66:	88 7f       	andi	r24, 0xF8	; 248
     a68:	80 83       	st	Z, r24
     a6a:	e5 e5       	ldi	r30, 0x55	; 85
     a6c:	f4 e0       	ldi	r31, 0x04	; 4
     a6e:	80 81       	ld	r24, Z
     a70:	80 68       	ori	r24, 0x80	; 128
     a72:	80 83       	st	Z, r24
     a74:	4d 98       	cbi	0x09, 5	; 9
     a76:	45 9a       	sbi	0x08, 5	; 8
     a78:	0e 94 2d 04 	call	0x85a	; 0x85a <CLKCTRL_init>
     a7c:	0e 94 46 06 	call	0xc8c	; 0xc8c <Timer_init>
     a80:	0e 94 54 04 	call	0x8a8	; 0x8a8 <ADC_0_initialization>
     a84:	0e 94 55 06 	call	0xcaa	; 0xcaa <TIMER_0_init>
     a88:	0e 94 35 04 	call	0x86a	; 0x86a <CPUINT_init>
     a8c:	0e 94 53 06 	call	0xca6	; 0xca6 <SLPCTRL_init>
     a90:	0e 94 87 04 	call	0x90e	; 0x90e <I2C_0_initialization>
     a94:	0e 94 2b 04 	call	0x856	; 0x856 <BOD_init>
     a98:	08 95       	ret

00000a9a <I2C_0_init>:
     a9a:	e0 e1       	ldi	r30, 0x10	; 16
     a9c:	f8 e0       	ldi	r31, 0x08	; 8
     a9e:	86 e4       	ldi	r24, 0x46	; 70
     aa0:	84 87       	std	Z+12, r24	; 0x0c
     aa2:	83 ee       	ldi	r24, 0xE3	; 227
     aa4:	81 87       	std	Z+9, r24	; 0x09
     aa6:	10 92 56 38 	sts	0x3856, r1	; 0x803856 <I2C_0_write_interrupt_handler>
     aaa:	10 92 57 38 	sts	0x3857, r1	; 0x803857 <I2C_0_write_interrupt_handler+0x1>
     aae:	10 92 58 38 	sts	0x3858, r1	; 0x803858 <I2C_0_read_interrupt_handler>
     ab2:	10 92 59 38 	sts	0x3859, r1	; 0x803859 <I2C_0_read_interrupt_handler+0x1>
     ab6:	10 92 5a 38 	sts	0x385A, r1	; 0x80385a <I2C_0_address_interrupt_handler>
     aba:	10 92 5b 38 	sts	0x385B, r1	; 0x80385b <I2C_0_address_interrupt_handler+0x1>
     abe:	10 92 54 38 	sts	0x3854, r1	; 0x803854 <I2C_0_stop_interrupt_handler>
     ac2:	10 92 55 38 	sts	0x3855, r1	; 0x803855 <I2C_0_stop_interrupt_handler+0x1>
     ac6:	10 92 5e 38 	sts	0x385E, r1	; 0x80385e <I2C_0_collision_interrupt_handler>
     aca:	10 92 5f 38 	sts	0x385F, r1	; 0x80385f <I2C_0_collision_interrupt_handler+0x1>
     ace:	10 92 5c 38 	sts	0x385C, r1	; 0x80385c <I2C_0_bus_error_interrupt_handler>
     ad2:	10 92 5d 38 	sts	0x385D, r1	; 0x80385d <I2C_0_bus_error_interrupt_handler+0x1>
     ad6:	08 95       	ret

00000ad8 <I2C_0_open>:
     ad8:	e0 e1       	ldi	r30, 0x10	; 16
     ada:	f8 e0       	ldi	r31, 0x08	; 8
     adc:	81 85       	ldd	r24, Z+9	; 0x09
     ade:	81 60       	ori	r24, 0x01	; 1
     ae0:	81 87       	std	Z+9, r24	; 0x09
     ae2:	08 95       	ret

00000ae4 <I2C_0_read>:
     ae4:	80 91 1d 08 	lds	r24, 0x081D	; 0x80081d <gain_setting_int_cap+0x7f6ba7>
     ae8:	08 95       	ret

00000aea <I2C_0_write>:
     aea:	e0 e1       	ldi	r30, 0x10	; 16
     aec:	f8 e0       	ldi	r31, 0x08	; 8
     aee:	85 87       	std	Z+13, r24	; 0x0d
     af0:	82 85       	ldd	r24, Z+10	; 0x0a
     af2:	83 60       	ori	r24, 0x03	; 3
     af4:	82 87       	std	Z+10, r24	; 0x0a
     af6:	08 95       	ret

00000af8 <I2C_0_send_ack>:
     af8:	83 e0       	ldi	r24, 0x03	; 3
     afa:	80 93 1a 08 	sts	0x081A, r24	; 0x80081a <gain_setting_int_cap+0x7f6ba4>
     afe:	08 95       	ret

00000b00 <I2C_0_goto_unaddressed>:
     b00:	e0 e1       	ldi	r30, 0x10	; 16
     b02:	f8 e0       	ldi	r31, 0x08	; 8
     b04:	83 85       	ldd	r24, Z+11	; 0x0b
     b06:	80 6c       	ori	r24, 0xC0	; 192
     b08:	83 87       	std	Z+11, r24	; 0x0b
     b0a:	82 e0       	ldi	r24, 0x02	; 2
     b0c:	82 87       	std	Z+10, r24	; 0x0a
     b0e:	08 95       	ret

00000b10 <I2C_0_read_callback>:
     b10:	e0 91 58 38 	lds	r30, 0x3858	; 0x803858 <I2C_0_read_interrupt_handler>
     b14:	f0 91 59 38 	lds	r31, 0x3859	; 0x803859 <I2C_0_read_interrupt_handler+0x1>
     b18:	30 97       	sbiw	r30, 0x00	; 0
     b1a:	09 f0       	breq	.+2      	; 0xb1e <I2C_0_read_callback+0xe>
     b1c:	09 95       	icall
     b1e:	08 95       	ret

00000b20 <I2C_0_set_read_callback>:
     b20:	80 93 58 38 	sts	0x3858, r24	; 0x803858 <I2C_0_read_interrupt_handler>
     b24:	90 93 59 38 	sts	0x3859, r25	; 0x803859 <I2C_0_read_interrupt_handler+0x1>
     b28:	08 95       	ret

00000b2a <I2C_0_write_callback>:
     b2a:	e0 91 56 38 	lds	r30, 0x3856	; 0x803856 <I2C_0_write_interrupt_handler>
     b2e:	f0 91 57 38 	lds	r31, 0x3857	; 0x803857 <I2C_0_write_interrupt_handler+0x1>
     b32:	30 97       	sbiw	r30, 0x00	; 0
     b34:	09 f0       	breq	.+2      	; 0xb38 <I2C_0_write_callback+0xe>
     b36:	09 95       	icall
     b38:	08 95       	ret

00000b3a <I2C_0_set_write_callback>:
     b3a:	80 93 56 38 	sts	0x3856, r24	; 0x803856 <I2C_0_write_interrupt_handler>
     b3e:	90 93 57 38 	sts	0x3857, r25	; 0x803857 <I2C_0_write_interrupt_handler+0x1>
     b42:	08 95       	ret

00000b44 <I2C_0_address_callback>:
     b44:	e0 91 5a 38 	lds	r30, 0x385A	; 0x80385a <I2C_0_address_interrupt_handler>
     b48:	f0 91 5b 38 	lds	r31, 0x385B	; 0x80385b <I2C_0_address_interrupt_handler+0x1>
     b4c:	30 97       	sbiw	r30, 0x00	; 0
     b4e:	09 f0       	breq	.+2      	; 0xb52 <I2C_0_address_callback+0xe>
     b50:	09 95       	icall
     b52:	08 95       	ret

00000b54 <I2C_0_set_address_callback>:
     b54:	80 93 5a 38 	sts	0x385A, r24	; 0x80385a <I2C_0_address_interrupt_handler>
     b58:	90 93 5b 38 	sts	0x385B, r25	; 0x80385b <I2C_0_address_interrupt_handler+0x1>
     b5c:	08 95       	ret

00000b5e <I2C_0_stop_callback>:
     b5e:	e0 91 54 38 	lds	r30, 0x3854	; 0x803854 <I2C_0_stop_interrupt_handler>
     b62:	f0 91 55 38 	lds	r31, 0x3855	; 0x803855 <I2C_0_stop_interrupt_handler+0x1>
     b66:	30 97       	sbiw	r30, 0x00	; 0
     b68:	09 f0       	breq	.+2      	; 0xb6c <I2C_0_stop_callback+0xe>
     b6a:	09 95       	icall
     b6c:	08 95       	ret

00000b6e <I2C_0_set_stop_callback>:
     b6e:	80 93 54 38 	sts	0x3854, r24	; 0x803854 <I2C_0_stop_interrupt_handler>
     b72:	90 93 55 38 	sts	0x3855, r25	; 0x803855 <I2C_0_stop_interrupt_handler+0x1>
     b76:	08 95       	ret

00000b78 <I2C_0_collision_callback>:
     b78:	e0 91 5e 38 	lds	r30, 0x385E	; 0x80385e <I2C_0_collision_interrupt_handler>
     b7c:	f0 91 5f 38 	lds	r31, 0x385F	; 0x80385f <I2C_0_collision_interrupt_handler+0x1>
     b80:	30 97       	sbiw	r30, 0x00	; 0
     b82:	09 f0       	breq	.+2      	; 0xb86 <I2C_0_collision_callback+0xe>
     b84:	09 95       	icall
     b86:	08 95       	ret

00000b88 <I2C_0_set_collision_callback>:
     b88:	80 93 5e 38 	sts	0x385E, r24	; 0x80385e <I2C_0_collision_interrupt_handler>
     b8c:	90 93 5f 38 	sts	0x385F, r25	; 0x80385f <I2C_0_collision_interrupt_handler+0x1>
     b90:	08 95       	ret

00000b92 <I2C_0_bus_error_callback>:
     b92:	e0 91 5c 38 	lds	r30, 0x385C	; 0x80385c <I2C_0_bus_error_interrupt_handler>
     b96:	f0 91 5d 38 	lds	r31, 0x385D	; 0x80385d <I2C_0_bus_error_interrupt_handler+0x1>
     b9a:	30 97       	sbiw	r30, 0x00	; 0
     b9c:	09 f0       	breq	.+2      	; 0xba0 <I2C_0_bus_error_callback+0xe>
     b9e:	09 95       	icall
     ba0:	08 95       	ret

00000ba2 <I2C_0_isr>:
     ba2:	80 91 1b 08 	lds	r24, 0x081B	; 0x80081b <gain_setting_int_cap+0x7f6ba5>
     ba6:	83 ff       	sbrs	r24, 3
     ba8:	03 c0       	rjmp	.+6      	; 0xbb0 <I2C_0_isr+0xe>
     baa:	0e 94 bc 05 	call	0xb78	; 0xb78 <I2C_0_collision_callback>
     bae:	08 95       	ret
     bb0:	80 91 1b 08 	lds	r24, 0x081B	; 0x80081b <gain_setting_int_cap+0x7f6ba5>
     bb4:	82 ff       	sbrs	r24, 2
     bb6:	03 c0       	rjmp	.+6      	; 0xbbe <I2C_0_isr+0x1c>
     bb8:	0e 94 c9 05 	call	0xb92	; 0xb92 <I2C_0_bus_error_callback>
     bbc:	08 95       	ret
     bbe:	80 91 1b 08 	lds	r24, 0x081B	; 0x80081b <gain_setting_int_cap+0x7f6ba5>
     bc2:	86 ff       	sbrs	r24, 6
     bc4:	0a c0       	rjmp	.+20     	; 0xbda <I2C_0_isr+0x38>
     bc6:	80 91 1b 08 	lds	r24, 0x081B	; 0x80081b <gain_setting_int_cap+0x7f6ba5>
     bca:	80 ff       	sbrs	r24, 0
     bcc:	06 c0       	rjmp	.+12     	; 0xbda <I2C_0_isr+0x38>
     bce:	0e 94 a2 05 	call	0xb44	; 0xb44 <I2C_0_address_callback>
     bd2:	81 e0       	ldi	r24, 0x01	; 1
     bd4:	80 93 28 38 	sts	0x3828, r24	; 0x803828 <isFirstByte.3979>
     bd8:	08 95       	ret
     bda:	80 91 1b 08 	lds	r24, 0x081B	; 0x80081b <gain_setting_int_cap+0x7f6ba5>
     bde:	88 23       	and	r24, r24
     be0:	d4 f4       	brge	.+52     	; 0xc16 <I2C_0_isr+0x74>
     be2:	80 91 1b 08 	lds	r24, 0x081B	; 0x80081b <gain_setting_int_cap+0x7f6ba5>
     be6:	81 ff       	sbrs	r24, 1
     be8:	13 c0       	rjmp	.+38     	; 0xc10 <I2C_0_isr+0x6e>
     bea:	80 91 1b 08 	lds	r24, 0x081B	; 0x80081b <gain_setting_int_cap+0x7f6ba5>
     bee:	84 ff       	sbrs	r24, 4
     bf0:	04 c0       	rjmp	.+8      	; 0xbfa <I2C_0_isr+0x58>
     bf2:	80 91 28 38 	lds	r24, 0x3828	; 0x803828 <isFirstByte.3979>
     bf6:	88 23       	and	r24, r24
     bf8:	41 f0       	breq	.+16     	; 0xc0a <I2C_0_isr+0x68>
     bfa:	10 92 28 38 	sts	0x3828, r1	; 0x803828 <isFirstByte.3979>
     bfe:	0e 94 88 05 	call	0xb10	; 0xb10 <I2C_0_read_callback>
     c02:	83 e0       	ldi	r24, 0x03	; 3
     c04:	80 93 1a 08 	sts	0x081A, r24	; 0x80081a <gain_setting_int_cap+0x7f6ba4>
     c08:	08 95       	ret
     c0a:	0e 94 80 05 	call	0xb00	; 0xb00 <I2C_0_goto_unaddressed>
     c0e:	08 95       	ret
     c10:	0e 94 95 05 	call	0xb2a	; 0xb2a <I2C_0_write_callback>
     c14:	08 95       	ret
     c16:	80 91 1b 08 	lds	r24, 0x081B	; 0x80081b <gain_setting_int_cap+0x7f6ba5>
     c1a:	86 ff       	sbrs	r24, 6
     c1c:	09 c0       	rjmp	.+18     	; 0xc30 <I2C_0_isr+0x8e>
     c1e:	80 91 1b 08 	lds	r24, 0x081B	; 0x80081b <gain_setting_int_cap+0x7f6ba5>
     c22:	80 fd       	sbrc	r24, 0
     c24:	05 c0       	rjmp	.+10     	; 0xc30 <I2C_0_isr+0x8e>
     c26:	0e 94 af 05 	call	0xb5e	; 0xb5e <I2C_0_stop_callback>
     c2a:	82 e0       	ldi	r24, 0x02	; 2
     c2c:	80 93 1a 08 	sts	0x081A, r24	; 0x80081a <gain_setting_int_cap+0x7f6ba4>
     c30:	08 95       	ret

00000c32 <__vector_24>:
     c32:	1f 92       	push	r1
     c34:	0f 92       	push	r0
     c36:	0f b6       	in	r0, 0x3f	; 63
     c38:	0f 92       	push	r0
     c3a:	11 24       	eor	r1, r1
     c3c:	2f 93       	push	r18
     c3e:	3f 93       	push	r19
     c40:	4f 93       	push	r20
     c42:	5f 93       	push	r21
     c44:	6f 93       	push	r22
     c46:	7f 93       	push	r23
     c48:	8f 93       	push	r24
     c4a:	9f 93       	push	r25
     c4c:	af 93       	push	r26
     c4e:	bf 93       	push	r27
     c50:	ef 93       	push	r30
     c52:	ff 93       	push	r31
     c54:	0e 94 d1 05 	call	0xba2	; 0xba2 <I2C_0_isr>
     c58:	ff 91       	pop	r31
     c5a:	ef 91       	pop	r30
     c5c:	bf 91       	pop	r27
     c5e:	af 91       	pop	r26
     c60:	9f 91       	pop	r25
     c62:	8f 91       	pop	r24
     c64:	7f 91       	pop	r23
     c66:	6f 91       	pop	r22
     c68:	5f 91       	pop	r21
     c6a:	4f 91       	pop	r20
     c6c:	3f 91       	pop	r19
     c6e:	2f 91       	pop	r18
     c70:	0f 90       	pop	r0
     c72:	0f be       	out	0x3f, r0	; 63
     c74:	0f 90       	pop	r0
     c76:	1f 90       	pop	r1
     c78:	18 95       	reti

00000c7a <I2C_0_set_bus_error_callback>:
     c7a:	80 93 5c 38 	sts	0x385C, r24	; 0x80385c <I2C_0_bus_error_interrupt_handler>
     c7e:	90 93 5d 38 	sts	0x385D, r25	; 0x80385d <I2C_0_bus_error_interrupt_handler+0x1>
     c82:	08 95       	ret

00000c84 <protected_write_io>:
     c84:	fc 01       	movw	r30, r24
     c86:	64 bf       	out	0x34, r22	; 52
     c88:	40 83       	st	Z, r20
     c8a:	08 95       	ret

00000c8c <Timer_init>:
     c8c:	e0 e4       	ldi	r30, 0x40	; 64
     c8e:	f1 e0       	ldi	r31, 0x01	; 1
     c90:	81 81       	ldd	r24, Z+1	; 0x01
     c92:	81 11       	cpse	r24, r1
     c94:	fd cf       	rjmp	.-6      	; 0xc90 <Timer_init+0x4>
     c96:	e0 e4       	ldi	r30, 0x40	; 64
     c98:	f1 e0       	ldi	r31, 0x01	; 1
     c9a:	81 e8       	ldi	r24, 0x81	; 129
     c9c:	80 83       	st	Z, r24
     c9e:	82 e0       	ldi	r24, 0x02	; 2
     ca0:	82 83       	std	Z+2, r24	; 0x02
     ca2:	80 e0       	ldi	r24, 0x00	; 0
     ca4:	08 95       	ret

00000ca6 <SLPCTRL_init>:
     ca6:	80 e0       	ldi	r24, 0x00	; 0
     ca8:	08 95       	ret

00000caa <TIMER_0_init>:
     caa:	80 e0       	ldi	r24, 0x00	; 0
     cac:	08 95       	ret

00000cae <check_for_aks_block>:
     cae:	cf 92       	push	r12
     cb0:	df 92       	push	r13
     cb2:	ff 92       	push	r15
     cb4:	0f 93       	push	r16
     cb6:	1f 93       	push	r17
     cb8:	cf 93       	push	r28
     cba:	df 93       	push	r29
     cbc:	ec 01       	movw	r28, r24
     cbe:	ae 81       	ldd	r26, Y+6	; 0x06
     cc0:	bf 81       	ldd	r27, Y+7	; 0x07
     cc2:	eb 01       	movw	r28, r22
     cc4:	cc 0f       	add	r28, r28
     cc6:	dd 1f       	adc	r29, r29
     cc8:	c6 0f       	add	r28, r22
     cca:	d7 1f       	adc	r29, r23
     ccc:	ca 0f       	add	r28, r26
     cce:	db 1f       	adc	r29, r27
     cd0:	fa 80       	ldd	r15, Y+2	; 0x02
     cd2:	fc 01       	movw	r30, r24
     cd4:	44 81       	ldd	r20, Z+4	; 0x04
     cd6:	55 81       	ldd	r21, Z+5	; 0x05
     cd8:	e6 e0       	ldi	r30, 0x06	; 6
     cda:	e6 9f       	mul	r30, r22
     cdc:	90 01       	movw	r18, r0
     cde:	e7 9f       	mul	r30, r23
     ce0:	30 0d       	add	r19, r0
     ce2:	11 24       	eor	r1, r1
     ce4:	8a 01       	movw	r16, r20
     ce6:	02 0f       	add	r16, r18
     ce8:	13 1f       	adc	r17, r19
     cea:	f8 01       	movw	r30, r16
     cec:	22 81       	ldd	r18, Z+2	; 0x02
     cee:	33 81       	ldd	r19, Z+3	; 0x03
     cf0:	f9 01       	movw	r30, r18
     cf2:	21 81       	ldd	r18, Z+1	; 0x01
     cf4:	32 81       	ldd	r19, Z+2	; 0x02
     cf6:	f8 01       	movw	r30, r16
     cf8:	04 81       	ldd	r16, Z+4	; 0x04
     cfa:	15 81       	ldd	r17, Z+5	; 0x05
     cfc:	20 1b       	sub	r18, r16
     cfe:	31 0b       	sbc	r19, r17
     d00:	e8 81       	ld	r30, Y
     d02:	2e 1b       	sub	r18, r30
     d04:	31 09       	sbc	r19, r1
     d06:	ec 01       	movw	r28, r24
     d08:	ea 81       	ldd	r30, Y+2	; 0x02
     d0a:	fb 81       	ldd	r31, Y+3	; 0x03
     d0c:	00 81       	ld	r16, Z
     d0e:	11 81       	ldd	r17, Z+1	; 0x01
     d10:	fa 01       	movw	r30, r20
     d12:	40 e0       	ldi	r20, 0x00	; 0
     d14:	50 e0       	ldi	r21, 0x00	; 0
     d16:	40 17       	cp	r20, r16
     d18:	51 07       	cpc	r21, r17
     d1a:	39 f1       	breq	.+78     	; 0xd6a <check_for_aks_block+0xbc>
     d1c:	46 17       	cp	r20, r22
     d1e:	57 07       	cpc	r21, r23
     d20:	f9 f0       	breq	.+62     	; 0xd60 <check_for_aks_block+0xb2>
     d22:	12 96       	adiw	r26, 0x02	; 2
     d24:	8c 91       	ld	r24, X
     d26:	12 97       	sbiw	r26, 0x02	; 2
     d28:	f8 12       	cpse	r15, r24
     d2a:	1a c0       	rjmp	.+52     	; 0xd60 <check_for_aks_block+0xb2>
     d2c:	80 81       	ld	r24, Z
     d2e:	85 58       	subi	r24, 0x85	; 133
     d30:	82 30       	cpi	r24, 0x02	; 2
     d32:	e8 f0       	brcs	.+58     	; 0xd6e <check_for_aks_block+0xc0>
     d34:	c4 80       	ldd	r12, Z+4	; 0x04
     d36:	d5 80       	ldd	r13, Z+5	; 0x05
     d38:	82 81       	ldd	r24, Z+2	; 0x02
     d3a:	93 81       	ldd	r25, Z+3	; 0x03
     d3c:	ec 01       	movw	r28, r24
     d3e:	89 81       	ldd	r24, Y+1	; 0x01
     d40:	9a 81       	ldd	r25, Y+2	; 0x02
     d42:	c8 16       	cp	r12, r24
     d44:	d9 06       	cpc	r13, r25
     d46:	60 f4       	brcc	.+24     	; 0xd60 <check_for_aks_block+0xb2>
     d48:	8c 19       	sub	r24, r12
     d4a:	9d 09       	sbc	r25, r13
     d4c:	cc 91       	ld	r28, X
     d4e:	d0 e0       	ldi	r29, 0x00	; 0
     d50:	c8 17       	cp	r28, r24
     d52:	d9 07       	cpc	r29, r25
     d54:	28 f4       	brcc	.+10     	; 0xd60 <check_for_aks_block+0xb2>
     d56:	8c 1b       	sub	r24, r28
     d58:	9d 0b       	sbc	r25, r29
     d5a:	28 17       	cp	r18, r24
     d5c:	39 07       	cpc	r19, r25
     d5e:	38 f0       	brcs	.+14     	; 0xd6e <check_for_aks_block+0xc0>
     d60:	4f 5f       	subi	r20, 0xFF	; 255
     d62:	5f 4f       	sbci	r21, 0xFF	; 255
     d64:	13 96       	adiw	r26, 0x03	; 3
     d66:	36 96       	adiw	r30, 0x06	; 6
     d68:	d6 cf       	rjmp	.-84     	; 0xd16 <check_for_aks_block+0x68>
     d6a:	80 e0       	ldi	r24, 0x00	; 0
     d6c:	01 c0       	rjmp	.+2      	; 0xd70 <check_for_aks_block+0xc2>
     d6e:	81 e0       	ldi	r24, 0x01	; 1
     d70:	df 91       	pop	r29
     d72:	cf 91       	pop	r28
     d74:	1f 91       	pop	r17
     d76:	0f 91       	pop	r16
     d78:	ff 90       	pop	r15
     d7a:	df 90       	pop	r13
     d7c:	cf 90       	pop	r12
     d7e:	08 95       	ret

00000d80 <qtm_update_qtlib_timer>:
     d80:	20 91 37 38 	lds	r18, 0x3837	; 0x803837 <qtm_local_ms_timecount>
     d84:	30 91 38 38 	lds	r19, 0x3838	; 0x803838 <qtm_local_ms_timecount+0x1>
     d88:	82 0f       	add	r24, r18
     d8a:	93 1f       	adc	r25, r19
     d8c:	80 93 37 38 	sts	0x3837, r24	; 0x803837 <qtm_local_ms_timecount>
     d90:	90 93 38 38 	sts	0x3838, r25	; 0x803838 <qtm_local_ms_timecount+0x1>
     d94:	08 95       	ret

00000d96 <qtm_init_sensor_key>:
     d96:	00 97       	sbiw	r24, 0x00	; 0
     d98:	d9 f0       	breq	.+54     	; 0xdd0 <qtm_init_sensor_key+0x3a>
     d9a:	41 15       	cp	r20, r1
     d9c:	51 05       	cpc	r21, r1
     d9e:	c1 f0       	breq	.+48     	; 0xdd0 <qtm_init_sensor_key+0x3a>
     da0:	26 e0       	ldi	r18, 0x06	; 6
     da2:	62 9f       	mul	r22, r18
     da4:	b0 01       	movw	r22, r0
     da6:	11 24       	eor	r1, r1
     da8:	dc 01       	movw	r26, r24
     daa:	14 96       	adiw	r26, 0x04	; 4
     dac:	ed 91       	ld	r30, X+
     dae:	fc 91       	ld	r31, X
     db0:	15 97       	sbiw	r26, 0x05	; 5
     db2:	e6 0f       	add	r30, r22
     db4:	f7 1f       	adc	r31, r23
     db6:	21 e0       	ldi	r18, 0x01	; 1
     db8:	20 83       	st	Z, r18
     dba:	14 96       	adiw	r26, 0x04	; 4
     dbc:	8d 91       	ld	r24, X+
     dbe:	9c 91       	ld	r25, X
     dc0:	15 97       	sbiw	r26, 0x05	; 5
     dc2:	fc 01       	movw	r30, r24
     dc4:	e6 0f       	add	r30, r22
     dc6:	f7 1f       	adc	r31, r23
     dc8:	42 83       	std	Z+2, r20	; 0x02
     dca:	53 83       	std	Z+3, r21	; 0x03
     dcc:	80 e0       	ldi	r24, 0x00	; 0
     dce:	08 95       	ret
     dd0:	8b e0       	ldi	r24, 0x0B	; 11
     dd2:	08 95       	ret

00000dd4 <qtm_key_sensors_process>:
     dd4:	2f 92       	push	r2
     dd6:	3f 92       	push	r3
     dd8:	4f 92       	push	r4
     dda:	5f 92       	push	r5
     ddc:	6f 92       	push	r6
     dde:	7f 92       	push	r7
     de0:	8f 92       	push	r8
     de2:	9f 92       	push	r9
     de4:	af 92       	push	r10
     de6:	bf 92       	push	r11
     de8:	cf 92       	push	r12
     dea:	df 92       	push	r13
     dec:	ef 92       	push	r14
     dee:	ff 92       	push	r15
     df0:	0f 93       	push	r16
     df2:	1f 93       	push	r17
     df4:	cf 93       	push	r28
     df6:	df 93       	push	r29
     df8:	00 97       	sbiw	r24, 0x00	; 0
     dfa:	09 f4       	brne	.+2      	; 0xdfe <qtm_key_sensors_process+0x2a>
     dfc:	7d c3       	rjmp	.+1786   	; 0x14f8 <qtm_key_sensors_process+0x724>
     dfe:	ec 01       	movw	r28, r24
     e00:	a1 2c       	mov	r10, r1
     e02:	b1 2c       	mov	r11, r1
     e04:	81 2c       	mov	r8, r1
     e06:	91 2c       	mov	r9, r1
     e08:	21 2c       	mov	r2, r1
     e0a:	d1 2c       	mov	r13, r1
     e0c:	33 e0       	ldi	r19, 0x03	; 3
     e0e:	c3 2e       	mov	r12, r19
     e10:	45 e8       	ldi	r20, 0x85	; 133
     e12:	64 2e       	mov	r6, r20
     e14:	56 e8       	ldi	r21, 0x86	; 134
     e16:	75 2e       	mov	r7, r21
     e18:	67 e0       	ldi	r22, 0x07	; 7
     e1a:	36 2e       	mov	r3, r22
     e1c:	72 e0       	ldi	r23, 0x02	; 2
     e1e:	47 2e       	mov	r4, r23
     e20:	e8 e0       	ldi	r30, 0x08	; 8
     e22:	5e 2e       	mov	r5, r30
     e24:	ea 81       	ldd	r30, Y+2	; 0x02
     e26:	fb 81       	ldd	r31, Y+3	; 0x03
     e28:	80 81       	ld	r24, Z
     e2a:	91 81       	ldd	r25, Z+1	; 0x01
     e2c:	88 16       	cp	r8, r24
     e2e:	99 06       	cpc	r9, r25
     e30:	08 f0       	brcs	.+2      	; 0xe34 <qtm_key_sensors_process+0x60>
     e32:	a5 c1       	rjmp	.+842    	; 0x117e <qtm_key_sensors_process+0x3aa>
     e34:	75 01       	movw	r14, r10
     e36:	ee 0c       	add	r14, r14
     e38:	ff 1c       	adc	r15, r15
     e3a:	0c 81       	ldd	r16, Y+4	; 0x04
     e3c:	1d 81       	ldd	r17, Y+5	; 0x05
     e3e:	0e 0d       	add	r16, r14
     e40:	1f 1d       	adc	r17, r15
     e42:	d8 01       	movw	r26, r16
     e44:	8c 91       	ld	r24, X
     e46:	84 30       	cpi	r24, 0x04	; 4
     e48:	09 f4       	brne	.+2      	; 0xe4c <qtm_key_sensors_process+0x78>
     e4a:	a2 c0       	rjmp	.+324    	; 0xf90 <qtm_key_sensors_process+0x1bc>
     e4c:	38 f4       	brcc	.+14     	; 0xe5c <qtm_key_sensors_process+0x88>
     e4e:	82 30       	cpi	r24, 0x02	; 2
     e50:	01 f1       	breq	.+64     	; 0xe92 <qtm_key_sensors_process+0xbe>
     e52:	08 f0       	brcs	.+2      	; 0xe56 <qtm_key_sensors_process+0x82>
     e54:	49 c0       	rjmp	.+146    	; 0xee8 <qtm_key_sensors_process+0x114>
     e56:	81 30       	cpi	r24, 0x01	; 1
     e58:	59 f0       	breq	.+22     	; 0xe70 <qtm_key_sensors_process+0x9c>
     e5a:	8a c1       	rjmp	.+788    	; 0x1170 <qtm_key_sensors_process+0x39c>
     e5c:	85 38       	cpi	r24, 0x85	; 133
     e5e:	09 f4       	brne	.+2      	; 0xe62 <qtm_key_sensors_process+0x8e>
     e60:	c2 c0       	rjmp	.+388    	; 0xfe6 <qtm_key_sensors_process+0x212>
     e62:	86 38       	cpi	r24, 0x86	; 134
     e64:	09 f4       	brne	.+2      	; 0xe68 <qtm_key_sensors_process+0x94>
     e66:	f6 c0       	rjmp	.+492    	; 0x1054 <qtm_key_sensors_process+0x280>
     e68:	87 30       	cpi	r24, 0x07	; 7
     e6a:	09 f0       	breq	.+2      	; 0xe6e <qtm_key_sensors_process+0x9a>
     e6c:	81 c1       	rjmp	.+770    	; 0x1170 <qtm_key_sensors_process+0x39c>
     e6e:	37 c1       	rjmp	.+622    	; 0x10de <qtm_key_sensors_process+0x30a>
     e70:	d8 01       	movw	r26, r16
     e72:	12 96       	adiw	r26, 0x02	; 2
     e74:	ed 91       	ld	r30, X+
     e76:	fc 91       	ld	r31, X
     e78:	13 97       	sbiw	r26, 0x03	; 3
     e7a:	80 81       	ld	r24, Z
     e7c:	8e 71       	andi	r24, 0x1E	; 30
     e7e:	09 f0       	breq	.+2      	; 0xe82 <qtm_key_sensors_process+0xae>
     e80:	69 c1       	rjmp	.+722    	; 0x1154 <qtm_key_sensors_process+0x380>
     e82:	4c 92       	st	X, r4
     e84:	8c 81       	ldd	r24, Y+4	; 0x04
     e86:	9d 81       	ldd	r25, Y+5	; 0x05
     e88:	fc 01       	movw	r30, r24
     e8a:	ee 0d       	add	r30, r14
     e8c:	ff 1d       	adc	r31, r15
     e8e:	51 82       	std	Z+1, r5	; 0x01
     e90:	61 c1       	rjmp	.+706    	; 0x1154 <qtm_key_sensors_process+0x380>
     e92:	f8 01       	movw	r30, r16
     e94:	21 81       	ldd	r18, Z+1	; 0x01
     e96:	22 23       	and	r18, r18
     e98:	29 f1       	breq	.+74     	; 0xee4 <qtm_key_sensors_process+0x110>
     e9a:	02 80       	ldd	r0, Z+2	; 0x02
     e9c:	f3 81       	ldd	r31, Z+3	; 0x03
     e9e:	e0 2d       	mov	r30, r0
     ea0:	25 30       	cpi	r18, 0x05	; 5
     ea2:	20 f0       	brcs	.+8      	; 0xeac <qtm_key_sensors_process+0xd8>
     ea4:	81 81       	ldd	r24, Z+1	; 0x01
     ea6:	92 81       	ldd	r25, Z+2	; 0x02
     ea8:	d8 01       	movw	r26, r16
     eaa:	0e c0       	rjmp	.+28     	; 0xec8 <qtm_key_sensors_process+0xf4>
     eac:	d8 01       	movw	r26, r16
     eae:	14 96       	adiw	r26, 0x04	; 4
     eb0:	8d 91       	ld	r24, X+
     eb2:	9c 91       	ld	r25, X
     eb4:	15 97       	sbiw	r26, 0x05	; 5
     eb6:	41 81       	ldd	r20, Z+1	; 0x01
     eb8:	52 81       	ldd	r21, Z+2	; 0x02
     eba:	84 17       	cp	r24, r20
     ebc:	95 07       	cpc	r25, r21
     ebe:	69 f0       	breq	.+26     	; 0xeda <qtm_key_sensors_process+0x106>
     ec0:	48 17       	cp	r20, r24
     ec2:	59 07       	cpc	r21, r25
     ec4:	30 f4       	brcc	.+12     	; 0xed2 <qtm_key_sensors_process+0xfe>
     ec6:	01 97       	sbiw	r24, 0x01	; 1
     ec8:	14 96       	adiw	r26, 0x04	; 4
     eca:	8d 93       	st	X+, r24
     ecc:	9c 93       	st	X, r25
     ece:	15 97       	sbiw	r26, 0x05	; 5
     ed0:	04 c0       	rjmp	.+8      	; 0xeda <qtm_key_sensors_process+0x106>
     ed2:	01 96       	adiw	r24, 0x01	; 1
     ed4:	f8 01       	movw	r30, r16
     ed6:	84 83       	std	Z+4, r24	; 0x04
     ed8:	95 83       	std	Z+5, r25	; 0x05
     eda:	21 50       	subi	r18, 0x01	; 1
     edc:	d8 01       	movw	r26, r16
     ede:	11 96       	adiw	r26, 0x01	; 1
     ee0:	2c 93       	st	X, r18
     ee2:	38 c1       	rjmp	.+624    	; 0x1154 <qtm_key_sensors_process+0x380>
     ee4:	f8 01       	movw	r30, r16
     ee6:	31 c1       	rjmp	.+610    	; 0x114a <qtm_key_sensors_process+0x376>
     ee8:	d8 01       	movw	r26, r16
     eea:	14 96       	adiw	r26, 0x04	; 4
     eec:	2d 91       	ld	r18, X+
     eee:	3c 91       	ld	r19, X
     ef0:	15 97       	sbiw	r26, 0x05	; 5
     ef2:	12 96       	adiw	r26, 0x02	; 2
     ef4:	8d 91       	ld	r24, X+
     ef6:	9c 91       	ld	r25, X
     ef8:	13 97       	sbiw	r26, 0x03	; 3
     efa:	dc 01       	movw	r26, r24
     efc:	11 96       	adiw	r26, 0x01	; 1
     efe:	4d 91       	ld	r20, X+
     f00:	5c 91       	ld	r21, X
     f02:	12 97       	sbiw	r26, 0x02	; 2
     f04:	24 17       	cp	r18, r20
     f06:	35 07       	cpc	r19, r21
     f08:	09 f4       	brne	.+2      	; 0xf0c <qtm_key_sensors_process+0x138>
     f0a:	32 c1       	rjmp	.+612    	; 0x1170 <qtm_key_sensors_process+0x39c>
     f0c:	8e 81       	ldd	r24, Y+6	; 0x06
     f0e:	9f 81       	ldd	r25, Y+7	; 0x07
     f10:	42 17       	cp	r20, r18
     f12:	53 07       	cpc	r21, r19
     f14:	e0 f4       	brcc	.+56     	; 0xf4e <qtm_key_sensors_process+0x17a>
     f16:	24 1b       	sub	r18, r20
     f18:	35 0b       	sbc	r19, r21
     f1a:	dc 01       	movw	r26, r24
     f1c:	aa 0d       	add	r26, r10
     f1e:	bb 1d       	adc	r27, r11
     f20:	8c 91       	ld	r24, X
     f22:	90 e0       	ldi	r25, 0x00	; 0
     f24:	05 80       	ldd	r0, Z+5	; 0x05
     f26:	02 c0       	rjmp	.+4      	; 0xf2c <qtm_key_sensors_process+0x158>
     f28:	95 95       	asr	r25
     f2a:	87 95       	ror	r24
     f2c:	0a 94       	dec	r0
     f2e:	e2 f7       	brpl	.-8      	; 0xf28 <qtm_key_sensors_process+0x154>
     f30:	99 27       	eor	r25, r25
     f32:	28 17       	cp	r18, r24
     f34:	39 07       	cpc	r19, r25
     f36:	08 f4       	brcc	.+2      	; 0xf3a <qtm_key_sensors_process+0x166>
     f38:	1b c1       	rjmp	.+566    	; 0x1170 <qtm_key_sensors_process+0x39c>
     f3a:	84 81       	ldd	r24, Z+4	; 0x04
     f3c:	88 23       	and	r24, r24
     f3e:	09 f4       	brne	.+2      	; 0xf42 <qtm_key_sensors_process+0x16e>
     f40:	17 c1       	rjmp	.+558    	; 0x1170 <qtm_key_sensors_process+0x39c>
     f42:	f8 01       	movw	r30, r16
     f44:	30 82       	st	Z, r3
     f46:	ea 81       	ldd	r30, Y+2	; 0x02
     f48:	fb 81       	ldd	r31, Y+3	; 0x03
     f4a:	24 81       	ldd	r18, Z+4	; 0x04
     f4c:	1a c0       	rjmp	.+52     	; 0xf82 <qtm_key_sensors_process+0x1ae>
     f4e:	fc 01       	movw	r30, r24
     f50:	ea 0d       	add	r30, r10
     f52:	fb 1d       	adc	r31, r11
     f54:	42 1b       	sub	r20, r18
     f56:	53 0b       	sbc	r21, r19
     f58:	80 81       	ld	r24, Z
     f5a:	90 e0       	ldi	r25, 0x00	; 0
     f5c:	48 17       	cp	r20, r24
     f5e:	59 07       	cpc	r21, r25
     f60:	08 f4       	brcc	.+2      	; 0xf64 <qtm_key_sensors_process+0x190>
     f62:	06 c1       	rjmp	.+524    	; 0x1170 <qtm_key_sensors_process+0x39c>
     f64:	82 81       	ldd	r24, Z+2	; 0x02
     f66:	88 23       	and	r24, r24
     f68:	31 f0       	breq	.+12     	; 0xf76 <qtm_key_sensors_process+0x1a2>
     f6a:	b4 01       	movw	r22, r8
     f6c:	ce 01       	movw	r24, r28
     f6e:	0e 94 57 06 	call	0xcae	; 0xcae <check_for_aks_block>
     f72:	81 11       	cpse	r24, r1
     f74:	fd c0       	rjmp	.+506    	; 0x1170 <qtm_key_sensors_process+0x39c>
     f76:	e4 e0       	ldi	r30, 0x04	; 4
     f78:	d8 01       	movw	r26, r16
     f7a:	ec 93       	st	X, r30
     f7c:	ea 81       	ldd	r30, Y+2	; 0x02
     f7e:	fb 81       	ldd	r31, Y+3	; 0x03
     f80:	22 81       	ldd	r18, Z+2	; 0x02
     f82:	8c 81       	ldd	r24, Y+4	; 0x04
     f84:	9d 81       	ldd	r25, Y+5	; 0x05
     f86:	fc 01       	movw	r30, r24
     f88:	ee 0d       	add	r30, r14
     f8a:	ff 1d       	adc	r31, r15
     f8c:	21 83       	std	Z+1, r18	; 0x01
     f8e:	e2 c0       	rjmp	.+452    	; 0x1154 <qtm_key_sensors_process+0x380>
     f90:	d8 01       	movw	r26, r16
     f92:	14 96       	adiw	r26, 0x04	; 4
     f94:	2d 91       	ld	r18, X+
     f96:	3c 91       	ld	r19, X
     f98:	15 97       	sbiw	r26, 0x05	; 5
     f9a:	12 96       	adiw	r26, 0x02	; 2
     f9c:	ed 91       	ld	r30, X+
     f9e:	fc 91       	ld	r31, X
     fa0:	13 97       	sbiw	r26, 0x03	; 3
     fa2:	81 81       	ldd	r24, Z+1	; 0x01
     fa4:	92 81       	ldd	r25, Z+2	; 0x02
     fa6:	82 17       	cp	r24, r18
     fa8:	93 07       	cpc	r25, r19
     faa:	08 f4       	brcc	.+2      	; 0xfae <qtm_key_sensors_process+0x1da>
     fac:	d7 c0       	rjmp	.+430    	; 0x115c <qtm_key_sensors_process+0x388>
     fae:	ee 81       	ldd	r30, Y+6	; 0x06
     fb0:	ff 81       	ldd	r31, Y+7	; 0x07
     fb2:	ea 0d       	add	r30, r10
     fb4:	fb 1d       	adc	r31, r11
     fb6:	82 1b       	sub	r24, r18
     fb8:	93 0b       	sbc	r25, r19
     fba:	20 81       	ld	r18, Z
     fbc:	30 e0       	ldi	r19, 0x00	; 0
     fbe:	28 17       	cp	r18, r24
     fc0:	39 07       	cpc	r19, r25
     fc2:	08 f0       	brcs	.+2      	; 0xfc6 <qtm_key_sensors_process+0x1f2>
     fc4:	af c0       	rjmp	.+350    	; 0x1124 <qtm_key_sensors_process+0x350>
     fc6:	82 81       	ldd	r24, Z+2	; 0x02
     fc8:	88 23       	and	r24, r24
     fca:	31 f0       	breq	.+12     	; 0xfd8 <qtm_key_sensors_process+0x204>
     fcc:	b4 01       	movw	r22, r8
     fce:	ce 01       	movw	r24, r28
     fd0:	0e 94 57 06 	call	0xcae	; 0xcae <check_for_aks_block>
     fd4:	81 11       	cpse	r24, r1
     fd6:	cc c0       	rjmp	.+408    	; 0x1170 <qtm_key_sensors_process+0x39c>
     fd8:	f8 01       	movw	r30, r16
     fda:	81 81       	ldd	r24, Z+1	; 0x01
     fdc:	88 23       	and	r24, r24
     fde:	09 f4       	brne	.+2      	; 0xfe2 <qtm_key_sensors_process+0x20e>
     fe0:	67 c0       	rjmp	.+206    	; 0x10b0 <qtm_key_sensors_process+0x2dc>
     fe2:	81 50       	subi	r24, 0x01	; 1
     fe4:	b6 c0       	rjmp	.+364    	; 0x1152 <qtm_key_sensors_process+0x37e>
     fe6:	a8 81       	ld	r26, Y
     fe8:	b9 81       	ldd	r27, Y+1	; 0x01
     fea:	80 85       	ldd	r24, Z+8	; 0x08
     fec:	13 96       	adiw	r26, 0x03	; 3
     fee:	8c 93       	st	X, r24
     ff0:	ec 81       	ldd	r30, Y+4	; 0x04
     ff2:	fd 81       	ldd	r31, Y+5	; 0x05
     ff4:	ee 0d       	add	r30, r14
     ff6:	ff 1d       	adc	r31, r15
     ff8:	44 81       	ldd	r20, Z+4	; 0x04
     ffa:	55 81       	ldd	r21, Z+5	; 0x05
     ffc:	a2 81       	ldd	r26, Z+2	; 0x02
     ffe:	b3 81       	ldd	r27, Z+3	; 0x03
    1000:	11 96       	adiw	r26, 0x01	; 1
    1002:	8d 91       	ld	r24, X+
    1004:	9c 91       	ld	r25, X
    1006:	12 97       	sbiw	r26, 0x02	; 2
    1008:	84 17       	cp	r24, r20
    100a:	95 07       	cpc	r25, r21
    100c:	c0 f0       	brcs	.+48     	; 0x103e <qtm_key_sensors_process+0x26a>
    100e:	ae 81       	ldd	r26, Y+6	; 0x06
    1010:	bf 81       	ldd	r27, Y+7	; 0x07
    1012:	aa 0d       	add	r26, r10
    1014:	bb 1d       	adc	r27, r11
    1016:	6c 91       	ld	r22, X
    1018:	26 2f       	mov	r18, r22
    101a:	30 e0       	ldi	r19, 0x00	; 0
    101c:	11 96       	adiw	r26, 0x01	; 1
    101e:	7c 91       	ld	r23, X
    1020:	7f 5f       	subi	r23, 0xFF	; 255
    1022:	02 c0       	rjmp	.+4      	; 0x1028 <qtm_key_sensors_process+0x254>
    1024:	35 95       	asr	r19
    1026:	27 95       	ror	r18
    1028:	7a 95       	dec	r23
    102a:	e2 f7       	brpl	.-8      	; 0x1024 <qtm_key_sensors_process+0x250>
    102c:	84 1b       	sub	r24, r20
    102e:	95 0b       	sbc	r25, r21
    1030:	62 1b       	sub	r22, r18
    1032:	26 2f       	mov	r18, r22
    1034:	30 e0       	ldi	r19, 0x00	; 0
    1036:	28 17       	cp	r18, r24
    1038:	39 07       	cpc	r19, r25
    103a:	08 f4       	brcc	.+2      	; 0x103e <qtm_key_sensors_process+0x26a>
    103c:	97 c0       	rjmp	.+302    	; 0x116c <qtm_key_sensors_process+0x398>
    103e:	70 82       	st	Z, r7
    1040:	ea 81       	ldd	r30, Y+2	; 0x02
    1042:	fb 81       	ldd	r31, Y+3	; 0x03
    1044:	22 81       	ldd	r18, Z+2	; 0x02
    1046:	8c 81       	ldd	r24, Y+4	; 0x04
    1048:	9d 81       	ldd	r25, Y+5	; 0x05
    104a:	fc 01       	movw	r30, r24
    104c:	ee 0d       	add	r30, r14
    104e:	ff 1d       	adc	r31, r15
    1050:	21 83       	std	Z+1, r18	; 0x01
    1052:	42 c0       	rjmp	.+132    	; 0x10d8 <qtm_key_sensors_process+0x304>
    1054:	d8 01       	movw	r26, r16
    1056:	14 96       	adiw	r26, 0x04	; 4
    1058:	6d 91       	ld	r22, X+
    105a:	7c 91       	ld	r23, X
    105c:	15 97       	sbiw	r26, 0x05	; 5
    105e:	12 96       	adiw	r26, 0x02	; 2
    1060:	ed 91       	ld	r30, X+
    1062:	fc 91       	ld	r31, X
    1064:	13 97       	sbiw	r26, 0x03	; 3
    1066:	21 81       	ldd	r18, Z+1	; 0x01
    1068:	32 81       	ldd	r19, Z+2	; 0x02
    106a:	26 17       	cp	r18, r22
    106c:	37 07       	cpc	r19, r23
    106e:	58 f4       	brcc	.+22     	; 0x1086 <qtm_key_sensors_process+0x2b2>
    1070:	11 96       	adiw	r26, 0x01	; 1
    1072:	8c 91       	ld	r24, X
    1074:	11 97       	sbiw	r26, 0x01	; 1
    1076:	81 11       	cpse	r24, r1
    1078:	02 c0       	rjmp	.+4      	; 0x107e <qtm_key_sensors_process+0x2aa>
    107a:	cc 92       	st	X, r12
    107c:	77 c0       	rjmp	.+238    	; 0x116c <qtm_key_sensors_process+0x398>
    107e:	81 50       	subi	r24, 0x01	; 1
    1080:	f8 01       	movw	r30, r16
    1082:	81 83       	std	Z+1, r24	; 0x01
    1084:	73 c0       	rjmp	.+230    	; 0x116c <qtm_key_sensors_process+0x398>
    1086:	ee 81       	ldd	r30, Y+6	; 0x06
    1088:	ff 81       	ldd	r31, Y+7	; 0x07
    108a:	ea 0d       	add	r30, r10
    108c:	fb 1d       	adc	r31, r11
    108e:	80 81       	ld	r24, Z
    1090:	48 2f       	mov	r20, r24
    1092:	50 e0       	ldi	r21, 0x00	; 0
    1094:	91 81       	ldd	r25, Z+1	; 0x01
    1096:	9f 5f       	subi	r25, 0xFF	; 255
    1098:	02 c0       	rjmp	.+4      	; 0x109e <qtm_key_sensors_process+0x2ca>
    109a:	55 95       	asr	r21
    109c:	47 95       	ror	r20
    109e:	9a 95       	dec	r25
    10a0:	e2 f7       	brpl	.-8      	; 0x109a <qtm_key_sensors_process+0x2c6>
    10a2:	26 1b       	sub	r18, r22
    10a4:	37 0b       	sbc	r19, r23
    10a6:	84 1b       	sub	r24, r20
    10a8:	90 e0       	ldi	r25, 0x00	; 0
    10aa:	82 17       	cp	r24, r18
    10ac:	93 07       	cpc	r25, r19
    10ae:	60 f4       	brcc	.+24     	; 0x10c8 <qtm_key_sensors_process+0x2f4>
    10b0:	d8 01       	movw	r26, r16
    10b2:	6c 92       	st	X, r6
    10b4:	ea 81       	ldd	r30, Y+2	; 0x02
    10b6:	fb 81       	ldd	r31, Y+3	; 0x03
    10b8:	23 81       	ldd	r18, Z+3	; 0x03
    10ba:	8c 81       	ldd	r24, Y+4	; 0x04
    10bc:	9d 81       	ldd	r25, Y+5	; 0x05
    10be:	fc 01       	movw	r30, r24
    10c0:	ee 0d       	add	r30, r14
    10c2:	ff 1d       	adc	r31, r15
    10c4:	21 83       	std	Z+1, r18	; 0x01
    10c6:	52 c0       	rjmp	.+164    	; 0x116c <qtm_key_sensors_process+0x398>
    10c8:	f8 01       	movw	r30, r16
    10ca:	81 81       	ldd	r24, Z+1	; 0x01
    10cc:	81 11       	cpse	r24, r1
    10ce:	02 c0       	rjmp	.+4      	; 0x10d4 <qtm_key_sensors_process+0x300>
    10d0:	c0 82       	st	Z, r12
    10d2:	4c c0       	rjmp	.+152    	; 0x116c <qtm_key_sensors_process+0x398>
    10d4:	81 50       	subi	r24, 0x01	; 1
    10d6:	81 83       	std	Z+1, r24	; 0x01
    10d8:	22 24       	eor	r2, r2
    10da:	23 94       	inc	r2
    10dc:	3b c0       	rjmp	.+118    	; 0x1154 <qtm_key_sensors_process+0x380>
    10de:	d8 01       	movw	r26, r16
    10e0:	14 96       	adiw	r26, 0x04	; 4
    10e2:	2d 91       	ld	r18, X+
    10e4:	3c 91       	ld	r19, X
    10e6:	15 97       	sbiw	r26, 0x05	; 5
    10e8:	12 96       	adiw	r26, 0x02	; 2
    10ea:	8d 91       	ld	r24, X+
    10ec:	9c 91       	ld	r25, X
    10ee:	13 97       	sbiw	r26, 0x03	; 3
    10f0:	dc 01       	movw	r26, r24
    10f2:	11 96       	adiw	r26, 0x01	; 1
    10f4:	8d 91       	ld	r24, X+
    10f6:	9c 91       	ld	r25, X
    10f8:	12 97       	sbiw	r26, 0x02	; 2
    10fa:	82 17       	cp	r24, r18
    10fc:	93 07       	cpc	r25, r19
    10fe:	68 f5       	brcc	.+90     	; 0x115a <qtm_key_sensors_process+0x386>
    1100:	28 1b       	sub	r18, r24
    1102:	39 0b       	sbc	r19, r25
    1104:	ae 81       	ldd	r26, Y+6	; 0x06
    1106:	bf 81       	ldd	r27, Y+7	; 0x07
    1108:	aa 0d       	add	r26, r10
    110a:	bb 1d       	adc	r27, r11
    110c:	8c 91       	ld	r24, X
    110e:	90 e0       	ldi	r25, 0x00	; 0
    1110:	05 80       	ldd	r0, Z+5	; 0x05
    1112:	02 c0       	rjmp	.+4      	; 0x1118 <qtm_key_sensors_process+0x344>
    1114:	95 95       	asr	r25
    1116:	87 95       	ror	r24
    1118:	0a 94       	dec	r0
    111a:	e2 f7       	brpl	.-8      	; 0x1114 <qtm_key_sensors_process+0x340>
    111c:	99 27       	eor	r25, r25
    111e:	28 17       	cp	r18, r24
    1120:	39 07       	cpc	r19, r25
    1122:	18 f4       	brcc	.+6      	; 0x112a <qtm_key_sensors_process+0x356>
    1124:	f8 01       	movw	r30, r16
    1126:	c0 82       	st	Z, r12
    1128:	1a c0       	rjmp	.+52     	; 0x115e <qtm_key_sensors_process+0x38a>
    112a:	d8 01       	movw	r26, r16
    112c:	11 96       	adiw	r26, 0x01	; 1
    112e:	8c 91       	ld	r24, X
    1130:	11 97       	sbiw	r26, 0x01	; 1
    1132:	81 11       	cpse	r24, r1
    1134:	0c c0       	rjmp	.+24     	; 0x114e <qtm_key_sensors_process+0x37a>
    1136:	81 e0       	ldi	r24, 0x01	; 1
    1138:	8c 93       	st	X, r24
    113a:	8c 81       	ldd	r24, Y+4	; 0x04
    113c:	9d 81       	ldd	r25, Y+5	; 0x05
    113e:	fc 01       	movw	r30, r24
    1140:	ee 0d       	add	r30, r14
    1142:	ff 1d       	adc	r31, r15
    1144:	02 80       	ldd	r0, Z+2	; 0x02
    1146:	f3 81       	ldd	r31, Z+3	; 0x03
    1148:	e0 2d       	mov	r30, r0
    114a:	c0 82       	st	Z, r12
    114c:	11 c0       	rjmp	.+34     	; 0x1170 <qtm_key_sensors_process+0x39c>
    114e:	81 50       	subi	r24, 0x01	; 1
    1150:	f8 01       	movw	r30, r16
    1152:	81 83       	std	Z+1, r24	; 0x01
    1154:	dd 24       	eor	r13, r13
    1156:	d3 94       	inc	r13
    1158:	0b c0       	rjmp	.+22     	; 0x1170 <qtm_key_sensors_process+0x39c>
    115a:	d8 01       	movw	r26, r16
    115c:	cc 92       	st	X, r12
    115e:	8c 81       	ldd	r24, Y+4	; 0x04
    1160:	9d 81       	ldd	r25, Y+5	; 0x05
    1162:	fc 01       	movw	r30, r24
    1164:	ee 0d       	add	r30, r14
    1166:	ff 1d       	adc	r31, r15
    1168:	11 82       	std	Z+1, r1	; 0x01
    116a:	02 c0       	rjmp	.+4      	; 0x1170 <qtm_key_sensors_process+0x39c>
    116c:	22 24       	eor	r2, r2
    116e:	23 94       	inc	r2
    1170:	bf ef       	ldi	r27, 0xFF	; 255
    1172:	8b 1a       	sub	r8, r27
    1174:	9b 0a       	sbc	r9, r27
    1176:	e3 e0       	ldi	r30, 0x03	; 3
    1178:	ae 0e       	add	r10, r30
    117a:	b1 1c       	adc	r11, r1
    117c:	53 ce       	rjmp	.-858    	; 0xe24 <qtm_key_sensors_process+0x50>
    117e:	e8 81       	ld	r30, Y
    1180:	f9 81       	ldd	r31, Y+1	; 0x01
    1182:	80 81       	ld	r24, Z
    1184:	87 ff       	sbrs	r24, 7
    1186:	23 c0       	rjmp	.+70     	; 0x11ce <qtm_key_sensors_process+0x3fa>
    1188:	40 e0       	ldi	r20, 0x00	; 0
    118a:	50 e0       	ldi	r21, 0x00	; 0
    118c:	20 e0       	ldi	r18, 0x00	; 0
    118e:	30 e0       	ldi	r19, 0x00	; 0
    1190:	ea 81       	ldd	r30, Y+2	; 0x02
    1192:	fb 81       	ldd	r31, Y+3	; 0x03
    1194:	80 81       	ld	r24, Z
    1196:	91 81       	ldd	r25, Z+1	; 0x01
    1198:	28 17       	cp	r18, r24
    119a:	39 07       	cpc	r19, r25
    119c:	98 f4       	brcc	.+38     	; 0x11c4 <qtm_key_sensors_process+0x3f0>
    119e:	ec 81       	ldd	r30, Y+4	; 0x04
    11a0:	fd 81       	ldd	r31, Y+5	; 0x05
    11a2:	e4 0f       	add	r30, r20
    11a4:	f5 1f       	adc	r31, r21
    11a6:	a2 81       	ldd	r26, Z+2	; 0x02
    11a8:	b3 81       	ldd	r27, Z+3	; 0x03
    11aa:	8c 91       	ld	r24, X
    11ac:	80 fd       	sbrc	r24, 0
    11ae:	05 c0       	rjmp	.+10     	; 0x11ba <qtm_key_sensors_process+0x3e6>
    11b0:	90 81       	ld	r25, Z
    11b2:	97 7f       	andi	r25, 0xF7	; 247
    11b4:	11 f0       	breq	.+4      	; 0x11ba <qtm_key_sensors_process+0x3e6>
    11b6:	81 60       	ori	r24, 0x01	; 1
    11b8:	8c 93       	st	X, r24
    11ba:	2f 5f       	subi	r18, 0xFF	; 255
    11bc:	3f 4f       	sbci	r19, 0xFF	; 255
    11be:	4a 5f       	subi	r20, 0xFA	; 250
    11c0:	5f 4f       	sbci	r21, 0xFF	; 255
    11c2:	e6 cf       	rjmp	.-52     	; 0x1190 <qtm_key_sensors_process+0x3bc>
    11c4:	e8 81       	ld	r30, Y
    11c6:	f9 81       	ldd	r31, Y+1	; 0x01
    11c8:	80 81       	ld	r24, Z
    11ca:	8f 77       	andi	r24, 0x7F	; 127
    11cc:	80 83       	st	Z, r24
    11ce:	d1 10       	cpse	r13, r1
    11d0:	07 c0       	rjmp	.+14     	; 0x11e0 <qtm_key_sensors_process+0x40c>
    11d2:	e8 81       	ld	r30, Y
    11d4:	f9 81       	ldd	r31, Y+1	; 0x01
    11d6:	21 10       	cpse	r2, r1
    11d8:	6f c0       	rjmp	.+222    	; 0x12b8 <qtm_key_sensors_process+0x4e4>
    11da:	80 81       	ld	r24, Z
    11dc:	8e 7f       	andi	r24, 0xFE	; 254
    11de:	6e c0       	rjmp	.+220    	; 0x12bc <qtm_key_sensors_process+0x4e8>
    11e0:	ea 81       	ldd	r30, Y+2	; 0x02
    11e2:	fb 81       	ldd	r31, Y+3	; 0x03
    11e4:	81 85       	ldd	r24, Z+9	; 0x09
    11e6:	88 23       	and	r24, r24
    11e8:	a1 f3       	breq	.-24     	; 0x11d2 <qtm_key_sensors_process+0x3fe>
    11ea:	e8 81       	ld	r30, Y
    11ec:	f9 81       	ldd	r31, Y+1	; 0x01
    11ee:	80 81       	ld	r24, Z
    11f0:	80 68       	ori	r24, 0x80	; 128
    11f2:	80 83       	st	Z, r24
    11f4:	ea 81       	ldd	r30, Y+2	; 0x02
    11f6:	fb 81       	ldd	r31, Y+3	; 0x03
    11f8:	81 85       	ldd	r24, Z+9	; 0x09
    11fa:	81 30       	cpi	r24, 0x01	; 1
    11fc:	51 f7       	brne	.-44     	; 0x11d2 <qtm_key_sensors_process+0x3fe>
    11fe:	40 e0       	ldi	r20, 0x00	; 0
    1200:	50 e0       	ldi	r21, 0x00	; 0
    1202:	20 e0       	ldi	r18, 0x00	; 0
    1204:	30 e0       	ldi	r19, 0x00	; 0
    1206:	96 e0       	ldi	r25, 0x06	; 6
    1208:	d9 2e       	mov	r13, r25
    120a:	ea 81       	ldd	r30, Y+2	; 0x02
    120c:	fb 81       	ldd	r31, Y+3	; 0x03
    120e:	60 81       	ld	r22, Z
    1210:	71 81       	ldd	r23, Z+1	; 0x01
    1212:	26 17       	cp	r18, r22
    1214:	37 07       	cpc	r19, r23
    1216:	e8 f6       	brcc	.-70     	; 0x11d2 <qtm_key_sensors_process+0x3fe>
    1218:	0c 81       	ldd	r16, Y+4	; 0x04
    121a:	1d 81       	ldd	r17, Y+5	; 0x05
    121c:	fa 01       	movw	r30, r20
    121e:	ee 0f       	add	r30, r30
    1220:	ff 1f       	adc	r31, r31
    1222:	e0 0f       	add	r30, r16
    1224:	f1 1f       	adc	r31, r17
    1226:	80 81       	ld	r24, Z
    1228:	98 2f       	mov	r25, r24
    122a:	97 7f       	andi	r25, 0xF7	; 247
    122c:	a1 f1       	breq	.+104    	; 0x1296 <qtm_key_sensors_process+0x4c2>
    122e:	85 38       	cpi	r24, 0x85	; 133
    1230:	11 f0       	breq	.+4      	; 0x1236 <qtm_key_sensors_process+0x462>
    1232:	83 30       	cpi	r24, 0x03	; 3
    1234:	b1 f5       	brne	.+108    	; 0x12a2 <qtm_key_sensors_process+0x4ce>
    1236:	ee 80       	ldd	r14, Y+6	; 0x06
    1238:	ff 80       	ldd	r15, Y+7	; 0x07
    123a:	d7 01       	movw	r26, r14
    123c:	a4 0f       	add	r26, r20
    123e:	b5 1f       	adc	r27, r21
    1240:	12 96       	adiw	r26, 0x02	; 2
    1242:	bc 90       	ld	r11, X
    1244:	bb 20       	and	r11, r11
    1246:	39 f1       	breq	.+78     	; 0x1296 <qtm_key_sensors_process+0x4c2>
    1248:	80 e0       	ldi	r24, 0x00	; 0
    124a:	90 e0       	ldi	r25, 0x00	; 0
    124c:	c1 2c       	mov	r12, r1
    124e:	86 17       	cp	r24, r22
    1250:	97 07       	cpc	r25, r23
    1252:	f8 f4       	brcc	.+62     	; 0x1292 <qtm_key_sensors_process+0x4be>
    1254:	28 17       	cp	r18, r24
    1256:	39 07       	cpc	r19, r25
    1258:	d1 f0       	breq	.+52     	; 0x128e <qtm_key_sensors_process+0x4ba>
    125a:	d8 9e       	mul	r13, r24
    125c:	d0 01       	movw	r26, r0
    125e:	d9 9e       	mul	r13, r25
    1260:	b0 0d       	add	r27, r0
    1262:	11 24       	eor	r1, r1
    1264:	a0 0f       	add	r26, r16
    1266:	b1 1f       	adc	r27, r17
    1268:	ac 91       	ld	r26, X
    126a:	a4 30       	cpi	r26, 0x04	; 4
    126c:	11 f0       	breq	.+4      	; 0x1272 <qtm_key_sensors_process+0x49e>
    126e:	a6 38       	cpi	r26, 0x86	; 134
    1270:	71 f4       	brne	.+28     	; 0x128e <qtm_key_sensors_process+0x4ba>
    1272:	dc 01       	movw	r26, r24
    1274:	aa 0f       	add	r26, r26
    1276:	bb 1f       	adc	r27, r27
    1278:	a8 0f       	add	r26, r24
    127a:	b9 1f       	adc	r27, r25
    127c:	ae 0d       	add	r26, r14
    127e:	bf 1d       	adc	r27, r15
    1280:	12 96       	adiw	r26, 0x02	; 2
    1282:	ac 91       	ld	r26, X
    1284:	ba 12       	cpse	r11, r26
    1286:	03 c0       	rjmp	.+6      	; 0x128e <qtm_key_sensors_process+0x4ba>
    1288:	cb 01       	movw	r24, r22
    128a:	cc 24       	eor	r12, r12
    128c:	c3 94       	inc	r12
    128e:	01 96       	adiw	r24, 0x01	; 1
    1290:	de cf       	rjmp	.-68     	; 0x124e <qtm_key_sensors_process+0x47a>
    1292:	c1 10       	cpse	r12, r1
    1294:	06 c0       	rjmp	.+12     	; 0x12a2 <qtm_key_sensors_process+0x4ce>
    1296:	02 80       	ldd	r0, Z+2	; 0x02
    1298:	f3 81       	ldd	r31, Z+3	; 0x03
    129a:	e0 2d       	mov	r30, r0
    129c:	80 81       	ld	r24, Z
    129e:	8e 7f       	andi	r24, 0xFE	; 254
    12a0:	05 c0       	rjmp	.+10     	; 0x12ac <qtm_key_sensors_process+0x4d8>
    12a2:	02 80       	ldd	r0, Z+2	; 0x02
    12a4:	f3 81       	ldd	r31, Z+3	; 0x03
    12a6:	e0 2d       	mov	r30, r0
    12a8:	80 81       	ld	r24, Z
    12aa:	81 60       	ori	r24, 0x01	; 1
    12ac:	80 83       	st	Z, r24
    12ae:	2f 5f       	subi	r18, 0xFF	; 255
    12b0:	3f 4f       	sbci	r19, 0xFF	; 255
    12b2:	4d 5f       	subi	r20, 0xFD	; 253
    12b4:	5f 4f       	sbci	r21, 0xFF	; 255
    12b6:	a9 cf       	rjmp	.-174    	; 0x120a <qtm_key_sensors_process+0x436>
    12b8:	80 81       	ld	r24, Z
    12ba:	81 60       	ori	r24, 0x01	; 1
    12bc:	80 83       	st	Z, r24
    12be:	80 91 37 38 	lds	r24, 0x3837	; 0x803837 <qtm_local_ms_timecount>
    12c2:	90 91 38 38 	lds	r25, 0x3838	; 0x803838 <qtm_local_ms_timecount+0x1>
    12c6:	e8 81       	ld	r30, Y
    12c8:	f9 81       	ldd	r31, Y+1	; 0x01
    12ca:	21 81       	ldd	r18, Z+1	; 0x01
    12cc:	32 81       	ldd	r19, Z+2	; 0x02
    12ce:	a9 01       	movw	r20, r18
    12d0:	48 53       	subi	r20, 0x38	; 56
    12d2:	5f 4f       	sbci	r21, 0xFF	; 255
    12d4:	48 17       	cp	r20, r24
    12d6:	59 07       	cpc	r21, r25
    12d8:	38 f4       	brcc	.+14     	; 0x12e8 <qtm_key_sensors_process+0x514>
    12da:	82 1b       	sub	r24, r18
    12dc:	93 0b       	sbc	r25, r19
    12de:	aa 24       	eor	r10, r10
    12e0:	a3 94       	inc	r10
    12e2:	a3 e0       	ldi	r26, 0x03	; 3
    12e4:	ba 2e       	mov	r11, r26
    12e6:	44 c0       	rjmp	.+136    	; 0x1370 <qtm_key_sensors_process+0x59c>
    12e8:	82 17       	cp	r24, r18
    12ea:	93 07       	cpc	r25, r19
    12ec:	10 f0       	brcs	.+4      	; 0x12f2 <qtm_key_sensors_process+0x51e>
    12ee:	80 e0       	ldi	r24, 0x00	; 0
    12f0:	04 c1       	rjmp	.+520    	; 0x14fa <qtm_key_sensors_process+0x726>
    12f2:	82 1b       	sub	r24, r18
    12f4:	93 0b       	sbc	r25, r19
    12f6:	01 97       	sbiw	r24, 0x01	; 1
    12f8:	89 3c       	cpi	r24, 0xC9	; 201
    12fa:	91 05       	cpc	r25, r1
    12fc:	c0 f3       	brcs	.-16     	; 0x12ee <qtm_key_sensors_process+0x51a>
    12fe:	ef cf       	rjmp	.-34     	; 0x12de <qtm_key_sensors_process+0x50a>
    1300:	88 5c       	subi	r24, 0xC8	; 200
    1302:	91 09       	sbc	r25, r1
    1304:	e8 81       	ld	r30, Y
    1306:	f9 81       	ldd	r31, Y+1	; 0x01
    1308:	21 81       	ldd	r18, Z+1	; 0x01
    130a:	32 81       	ldd	r19, Z+2	; 0x02
    130c:	28 53       	subi	r18, 0x38	; 56
    130e:	3f 4f       	sbci	r19, 0xFF	; 255
    1310:	21 83       	std	Z+1, r18	; 0x01
    1312:	32 83       	std	Z+2, r19	; 0x02
    1314:	23 81       	ldd	r18, Z+3	; 0x03
    1316:	21 11       	cpse	r18, r1
    1318:	96 c0       	rjmp	.+300    	; 0x1446 <qtm_key_sensors_process+0x672>
    131a:	24 81       	ldd	r18, Z+4	; 0x04
    131c:	22 23       	and	r18, r18
    131e:	11 f0       	breq	.+4      	; 0x1324 <qtm_key_sensors_process+0x550>
    1320:	21 50       	subi	r18, 0x01	; 1
    1322:	24 83       	std	Z+4, r18	; 0x04
    1324:	e8 81       	ld	r30, Y
    1326:	f9 81       	ldd	r31, Y+1	; 0x01
    1328:	25 81       	ldd	r18, Z+5	; 0x05
    132a:	22 23       	and	r18, r18
    132c:	11 f0       	breq	.+4      	; 0x1332 <qtm_key_sensors_process+0x55e>
    132e:	21 50       	subi	r18, 0x01	; 1
    1330:	25 83       	std	Z+5, r18	; 0x05
    1332:	8a 80       	ldd	r8, Y+2	; 0x02
    1334:	9b 80       	ldd	r9, Y+3	; 0x03
    1336:	d4 01       	movw	r26, r8
    1338:	16 96       	adiw	r26, 0x06	; 6
    133a:	2c 91       	ld	r18, X
    133c:	16 97       	sbiw	r26, 0x06	; 6
    133e:	21 11       	cpse	r18, r1
    1340:	1b c0       	rjmp	.+54     	; 0x1378 <qtm_key_sensors_process+0x5a4>
    1342:	8a 80       	ldd	r8, Y+2	; 0x02
    1344:	9b 80       	ldd	r9, Y+3	; 0x03
    1346:	f4 01       	movw	r30, r8
    1348:	27 81       	ldd	r18, Z+7	; 0x07
    134a:	21 11       	cpse	r18, r1
    134c:	48 c0       	rjmp	.+144    	; 0x13de <qtm_key_sensors_process+0x60a>
    134e:	ea 81       	ldd	r30, Y+2	; 0x02
    1350:	fb 81       	ldd	r31, Y+3	; 0x03
    1352:	23 81       	ldd	r18, Z+3	; 0x03
    1354:	22 23       	and	r18, r18
    1356:	61 f0       	breq	.+24     	; 0x1370 <qtm_key_sensors_process+0x59c>
    1358:	20 e0       	ldi	r18, 0x00	; 0
    135a:	30 e0       	ldi	r19, 0x00	; 0
    135c:	a0 e0       	ldi	r26, 0x00	; 0
    135e:	b0 e0       	ldi	r27, 0x00	; 0
    1360:	ea 81       	ldd	r30, Y+2	; 0x02
    1362:	fb 81       	ldd	r31, Y+3	; 0x03
    1364:	40 81       	ld	r20, Z
    1366:	51 81       	ldd	r21, Z+1	; 0x01
    1368:	a4 17       	cp	r26, r20
    136a:	b5 07       	cpc	r27, r21
    136c:	08 f4       	brcc	.+2      	; 0x1370 <qtm_key_sensors_process+0x59c>
    136e:	6e c0       	rjmp	.+220    	; 0x144c <qtm_key_sensors_process+0x678>
    1370:	89 3c       	cpi	r24, 0xC9	; 201
    1372:	91 05       	cpc	r25, r1
    1374:	28 f6       	brcc	.-118    	; 0x1300 <qtm_key_sensors_process+0x52c>
    1376:	bb cf       	rjmp	.-138    	; 0x12ee <qtm_key_sensors_process+0x51a>
    1378:	08 81       	ld	r16, Y
    137a:	19 81       	ldd	r17, Y+1	; 0x01
    137c:	f8 01       	movw	r30, r16
    137e:	24 81       	ldd	r18, Z+4	; 0x04
    1380:	21 11       	cpse	r18, r1
    1382:	df cf       	rjmp	.-66     	; 0x1342 <qtm_key_sensors_process+0x56e>
    1384:	ed 90       	ld	r14, X+
    1386:	fc 90       	ld	r15, X
    1388:	60 e0       	ldi	r22, 0x00	; 0
    138a:	70 e0       	ldi	r23, 0x00	; 0
    138c:	40 e0       	ldi	r20, 0x00	; 0
    138e:	50 e0       	ldi	r21, 0x00	; 0
    1390:	4e 15       	cp	r20, r14
    1392:	5f 05       	cpc	r21, r15
    1394:	f1 f0       	breq	.+60     	; 0x13d2 <qtm_key_sensors_process+0x5fe>
    1396:	ec 81       	ldd	r30, Y+4	; 0x04
    1398:	fd 81       	ldd	r31, Y+5	; 0x05
    139a:	e6 0f       	add	r30, r22
    139c:	f7 1f       	adc	r31, r23
    139e:	20 81       	ld	r18, Z
    13a0:	23 30       	cpi	r18, 0x03	; 3
    13a2:	11 f0       	breq	.+4      	; 0x13a8 <qtm_key_sensors_process+0x5d4>
    13a4:	28 30       	cpi	r18, 0x08	; 8
    13a6:	81 f4       	brne	.+32     	; 0x13c8 <qtm_key_sensors_process+0x5f4>
    13a8:	24 81       	ldd	r18, Z+4	; 0x04
    13aa:	35 81       	ldd	r19, Z+5	; 0x05
    13ac:	c2 80       	ldd	r12, Z+2	; 0x02
    13ae:	d3 80       	ldd	r13, Z+3	; 0x03
    13b0:	d6 01       	movw	r26, r12
    13b2:	11 96       	adiw	r26, 0x01	; 1
    13b4:	cd 90       	ld	r12, X+
    13b6:	dc 90       	ld	r13, X
    13b8:	12 97       	sbiw	r26, 0x02	; 2
    13ba:	2c 15       	cp	r18, r12
    13bc:	3d 05       	cpc	r19, r13
    13be:	20 f4       	brcc	.+8      	; 0x13c8 <qtm_key_sensors_process+0x5f4>
    13c0:	2f 5f       	subi	r18, 0xFF	; 255
    13c2:	3f 4f       	sbci	r19, 0xFF	; 255
    13c4:	24 83       	std	Z+4, r18	; 0x04
    13c6:	35 83       	std	Z+5, r19	; 0x05
    13c8:	4f 5f       	subi	r20, 0xFF	; 255
    13ca:	5f 4f       	sbci	r21, 0xFF	; 255
    13cc:	6a 5f       	subi	r22, 0xFA	; 250
    13ce:	7f 4f       	sbci	r23, 0xFF	; 255
    13d0:	df cf       	rjmp	.-66     	; 0x1390 <qtm_key_sensors_process+0x5bc>
    13d2:	f4 01       	movw	r30, r8
    13d4:	26 81       	ldd	r18, Z+6	; 0x06
    13d6:	d8 01       	movw	r26, r16
    13d8:	14 96       	adiw	r26, 0x04	; 4
    13da:	2c 93       	st	X, r18
    13dc:	b2 cf       	rjmp	.-156    	; 0x1342 <qtm_key_sensors_process+0x56e>
    13de:	08 81       	ld	r16, Y
    13e0:	19 81       	ldd	r17, Y+1	; 0x01
    13e2:	d8 01       	movw	r26, r16
    13e4:	15 96       	adiw	r26, 0x05	; 5
    13e6:	2c 91       	ld	r18, X
    13e8:	21 11       	cpse	r18, r1
    13ea:	b1 cf       	rjmp	.-158    	; 0x134e <qtm_key_sensors_process+0x57a>
    13ec:	e0 80       	ld	r14, Z
    13ee:	f1 80       	ldd	r15, Z+1	; 0x01
    13f0:	60 e0       	ldi	r22, 0x00	; 0
    13f2:	70 e0       	ldi	r23, 0x00	; 0
    13f4:	40 e0       	ldi	r20, 0x00	; 0
    13f6:	50 e0       	ldi	r21, 0x00	; 0
    13f8:	4e 15       	cp	r20, r14
    13fa:	5f 05       	cpc	r21, r15
    13fc:	f1 f0       	breq	.+60     	; 0x143a <qtm_key_sensors_process+0x666>
    13fe:	ec 81       	ldd	r30, Y+4	; 0x04
    1400:	fd 81       	ldd	r31, Y+5	; 0x05
    1402:	e6 0f       	add	r30, r22
    1404:	f7 1f       	adc	r31, r23
    1406:	20 81       	ld	r18, Z
    1408:	23 30       	cpi	r18, 0x03	; 3
    140a:	11 f0       	breq	.+4      	; 0x1410 <qtm_key_sensors_process+0x63c>
    140c:	28 30       	cpi	r18, 0x08	; 8
    140e:	81 f4       	brne	.+32     	; 0x1430 <qtm_key_sensors_process+0x65c>
    1410:	24 81       	ldd	r18, Z+4	; 0x04
    1412:	35 81       	ldd	r19, Z+5	; 0x05
    1414:	c2 80       	ldd	r12, Z+2	; 0x02
    1416:	d3 80       	ldd	r13, Z+3	; 0x03
    1418:	d6 01       	movw	r26, r12
    141a:	11 96       	adiw	r26, 0x01	; 1
    141c:	cd 90       	ld	r12, X+
    141e:	dc 90       	ld	r13, X
    1420:	12 97       	sbiw	r26, 0x02	; 2
    1422:	c2 16       	cp	r12, r18
    1424:	d3 06       	cpc	r13, r19
    1426:	20 f4       	brcc	.+8      	; 0x1430 <qtm_key_sensors_process+0x65c>
    1428:	21 50       	subi	r18, 0x01	; 1
    142a:	31 09       	sbc	r19, r1
    142c:	24 83       	std	Z+4, r18	; 0x04
    142e:	35 83       	std	Z+5, r19	; 0x05
    1430:	4f 5f       	subi	r20, 0xFF	; 255
    1432:	5f 4f       	sbci	r21, 0xFF	; 255
    1434:	6a 5f       	subi	r22, 0xFA	; 250
    1436:	7f 4f       	sbci	r23, 0xFF	; 255
    1438:	df cf       	rjmp	.-66     	; 0x13f8 <qtm_key_sensors_process+0x624>
    143a:	f4 01       	movw	r30, r8
    143c:	27 81       	ldd	r18, Z+7	; 0x07
    143e:	d8 01       	movw	r26, r16
    1440:	15 96       	adiw	r26, 0x05	; 5
    1442:	2c 93       	st	X, r18
    1444:	84 cf       	rjmp	.-248    	; 0x134e <qtm_key_sensors_process+0x57a>
    1446:	21 50       	subi	r18, 0x01	; 1
    1448:	23 83       	std	Z+3, r18	; 0x03
    144a:	81 cf       	rjmp	.-254    	; 0x134e <qtm_key_sensors_process+0x57a>
    144c:	a9 01       	movw	r20, r18
    144e:	44 0f       	add	r20, r20
    1450:	55 1f       	adc	r21, r21
    1452:	ec 81       	ldd	r30, Y+4	; 0x04
    1454:	fd 81       	ldd	r31, Y+5	; 0x05
    1456:	e4 0f       	add	r30, r20
    1458:	f5 1f       	adc	r31, r21
    145a:	60 81       	ld	r22, Z
    145c:	65 38       	cpi	r22, 0x85	; 133
    145e:	09 f0       	breq	.+2      	; 0x1462 <qtm_key_sensors_process+0x68e>
    1460:	47 c0       	rjmp	.+142    	; 0x14f0 <qtm_key_sensors_process+0x71c>
    1462:	61 81       	ldd	r22, Z+1	; 0x01
    1464:	66 23       	and	r22, r22
    1466:	19 f0       	breq	.+6      	; 0x146e <qtm_key_sensors_process+0x69a>
    1468:	61 50       	subi	r22, 0x01	; 1
    146a:	61 83       	std	Z+1, r22	; 0x01
    146c:	41 c0       	rjmp	.+130    	; 0x14f0 <qtm_key_sensors_process+0x71c>
    146e:	a0 82       	st	Z, r10
    1470:	6c 81       	ldd	r22, Y+4	; 0x04
    1472:	7d 81       	ldd	r23, Y+5	; 0x05
    1474:	fb 01       	movw	r30, r22
    1476:	e4 0f       	add	r30, r20
    1478:	f5 1f       	adc	r31, r21
    147a:	02 80       	ldd	r0, Z+2	; 0x02
    147c:	f3 81       	ldd	r31, Z+3	; 0x03
    147e:	e0 2d       	mov	r30, r0
    1480:	b0 82       	st	Z, r11
    1482:	ee 81       	ldd	r30, Y+6	; 0x06
    1484:	ff 81       	ldd	r31, Y+7	; 0x07
    1486:	e2 0f       	add	r30, r18
    1488:	f3 1f       	adc	r31, r19
    148a:	d2 80       	ldd	r13, Z+2	; 0x02
    148c:	dd 20       	and	r13, r13
    148e:	81 f1       	breq	.+96     	; 0x14f0 <qtm_key_sensors_process+0x71c>
    1490:	40 e0       	ldi	r20, 0x00	; 0
    1492:	50 e0       	ldi	r21, 0x00	; 0
    1494:	00 e0       	ldi	r16, 0x00	; 0
    1496:	10 e0       	ldi	r17, 0x00	; 0
    1498:	ea 81       	ldd	r30, Y+2	; 0x02
    149a:	fb 81       	ldd	r31, Y+3	; 0x03
    149c:	60 81       	ld	r22, Z
    149e:	71 81       	ldd	r23, Z+1	; 0x01
    14a0:	06 17       	cp	r16, r22
    14a2:	17 07       	cpc	r17, r23
    14a4:	28 f5       	brcc	.+74     	; 0x14f0 <qtm_key_sensors_process+0x71c>
    14a6:	ee 81       	ldd	r30, Y+6	; 0x06
    14a8:	ff 81       	ldd	r31, Y+7	; 0x07
    14aa:	e4 0f       	add	r30, r20
    14ac:	f5 1f       	adc	r31, r21
    14ae:	62 81       	ldd	r22, Z+2	; 0x02
    14b0:	d6 12       	cpse	r13, r22
    14b2:	19 c0       	rjmp	.+50     	; 0x14e6 <qtm_key_sensors_process+0x712>
    14b4:	ba 01       	movw	r22, r20
    14b6:	66 0f       	add	r22, r22
    14b8:	77 1f       	adc	r23, r23
    14ba:	ec 81       	ldd	r30, Y+4	; 0x04
    14bc:	fd 81       	ldd	r31, Y+5	; 0x05
    14be:	4f 01       	movw	r8, r30
    14c0:	86 0e       	add	r8, r22
    14c2:	97 1e       	adc	r9, r23
    14c4:	f4 01       	movw	r30, r8
    14c6:	e2 80       	ldd	r14, Z+2	; 0x02
    14c8:	f3 80       	ldd	r15, Z+3	; 0x03
    14ca:	f7 01       	movw	r30, r14
    14cc:	f0 80       	ld	r15, Z
    14ce:	f0 fe       	sbrs	r15, 0
    14d0:	0a c0       	rjmp	.+20     	; 0x14e6 <qtm_key_sensors_process+0x712>
    14d2:	f4 01       	movw	r30, r8
    14d4:	a0 82       	st	Z, r10
    14d6:	ec 81       	ldd	r30, Y+4	; 0x04
    14d8:	fd 81       	ldd	r31, Y+5	; 0x05
    14da:	e6 0f       	add	r30, r22
    14dc:	f7 1f       	adc	r31, r23
    14de:	02 80       	ldd	r0, Z+2	; 0x02
    14e0:	f3 81       	ldd	r31, Z+3	; 0x03
    14e2:	e0 2d       	mov	r30, r0
    14e4:	b0 82       	st	Z, r11
    14e6:	0f 5f       	subi	r16, 0xFF	; 255
    14e8:	1f 4f       	sbci	r17, 0xFF	; 255
    14ea:	4d 5f       	subi	r20, 0xFD	; 253
    14ec:	5f 4f       	sbci	r21, 0xFF	; 255
    14ee:	d4 cf       	rjmp	.-88     	; 0x1498 <qtm_key_sensors_process+0x6c4>
    14f0:	11 96       	adiw	r26, 0x01	; 1
    14f2:	2d 5f       	subi	r18, 0xFD	; 253
    14f4:	3f 4f       	sbci	r19, 0xFF	; 255
    14f6:	34 cf       	rjmp	.-408    	; 0x1360 <qtm_key_sensors_process+0x58c>
    14f8:	8b e0       	ldi	r24, 0x0B	; 11
    14fa:	df 91       	pop	r29
    14fc:	cf 91       	pop	r28
    14fe:	1f 91       	pop	r17
    1500:	0f 91       	pop	r16
    1502:	ff 90       	pop	r15
    1504:	ef 90       	pop	r14
    1506:	df 90       	pop	r13
    1508:	cf 90       	pop	r12
    150a:	bf 90       	pop	r11
    150c:	af 90       	pop	r10
    150e:	9f 90       	pop	r9
    1510:	8f 90       	pop	r8
    1512:	7f 90       	pop	r7
    1514:	6f 90       	pop	r6
    1516:	5f 90       	pop	r5
    1518:	4f 90       	pop	r4
    151a:	3f 90       	pop	r3
    151c:	2f 90       	pop	r2
    151e:	08 95       	ret

00001520 <select_next_channel_to_measure>:
    1520:	80 91 3c 38 	lds	r24, 0x383C	; 0x80383c <current_measure_channel>
    1524:	90 91 3d 38 	lds	r25, 0x383D	; 0x80383d <current_measure_channel+0x1>
    1528:	a0 91 60 38 	lds	r26, 0x3860	; 0x803860 <qtm_acquisition_control_working_set_ptr>
    152c:	b0 91 61 38 	lds	r27, 0x3861	; 0x803861 <qtm_acquisition_control_working_set_ptr+0x1>
    1530:	ed 91       	ld	r30, X+
    1532:	fc 91       	ld	r31, X
    1534:	11 97       	sbiw	r26, 0x01	; 1
    1536:	40 81       	ld	r20, Z
    1538:	51 81       	ldd	r21, Z+1	; 0x01
    153a:	25 e0       	ldi	r18, 0x05	; 5
    153c:	28 9f       	mul	r18, r24
    153e:	b0 01       	movw	r22, r0
    1540:	29 9f       	mul	r18, r25
    1542:	70 0d       	add	r23, r0
    1544:	11 24       	eor	r1, r1
    1546:	20 e0       	ldi	r18, 0x00	; 0
    1548:	30 e0       	ldi	r19, 0x00	; 0
    154a:	84 17       	cp	r24, r20
    154c:	95 07       	cpc	r25, r21
    154e:	a8 f4       	brcc	.+42     	; 0x157a <select_next_channel_to_measure+0x5a>
    1550:	14 96       	adiw	r26, 0x04	; 4
    1552:	ed 91       	ld	r30, X+
    1554:	fc 91       	ld	r31, X
    1556:	15 97       	sbiw	r26, 0x05	; 5
    1558:	e2 0f       	add	r30, r18
    155a:	f3 1f       	adc	r31, r19
    155c:	e6 0f       	add	r30, r22
    155e:	f7 1f       	adc	r31, r23
    1560:	e0 81       	ld	r30, Z
    1562:	2b 5f       	subi	r18, 0xFB	; 251
    1564:	3f 4f       	sbci	r19, 0xFF	; 255
    1566:	e0 fd       	sbrc	r30, 0
    1568:	02 c0       	rjmp	.+4      	; 0x156e <select_next_channel_to_measure+0x4e>
    156a:	01 96       	adiw	r24, 0x01	; 1
    156c:	ee cf       	rjmp	.-36     	; 0x154a <select_next_channel_to_measure+0x2a>
    156e:	80 93 3c 38 	sts	0x383C, r24	; 0x80383c <current_measure_channel>
    1572:	90 93 3d 38 	sts	0x383D, r25	; 0x80383d <current_measure_channel+0x1>
    1576:	80 e0       	ldi	r24, 0x00	; 0
    1578:	08 95       	ret
    157a:	10 92 3c 38 	sts	0x383C, r1	; 0x80383c <current_measure_channel>
    157e:	10 92 3d 38 	sts	0x383D, r1	; 0x80383d <current_measure_channel+0x1>
    1582:	81 e0       	ldi	r24, 0x01	; 1
    1584:	08 95       	ret

00001586 <qtm_measure_node>:
    1586:	bc 01       	movw	r22, r24
    1588:	e0 91 60 38 	lds	r30, 0x3860	; 0x803860 <qtm_acquisition_control_working_set_ptr>
    158c:	f0 91 61 38 	lds	r31, 0x3861	; 0x803861 <qtm_acquisition_control_working_set_ptr+0x1>
    1590:	9c 01       	movw	r18, r24
    1592:	83 e0       	ldi	r24, 0x03	; 3
    1594:	22 0f       	add	r18, r18
    1596:	33 1f       	adc	r19, r19
    1598:	8a 95       	dec	r24
    159a:	e1 f7       	brne	.-8      	; 0x1594 <qtm_measure_node+0xe>
    159c:	a2 81       	ldd	r26, Z+2	; 0x02
    159e:	b3 81       	ldd	r27, Z+3	; 0x03
    15a0:	a2 0f       	add	r26, r18
    15a2:	b3 1f       	adc	r27, r19
    15a4:	12 96       	adiw	r26, 0x02	; 2
    15a6:	9c 91       	ld	r25, X
    15a8:	12 97       	sbiw	r26, 0x02	; 2
    15aa:	13 96       	adiw	r26, 0x03	; 3
    15ac:	8c 91       	ld	r24, X
    15ae:	90 93 2a 06 	sts	0x062A, r25	; 0x80062a <gain_setting_int_cap+0x7f69b4>
    15b2:	80 93 2b 06 	sts	0x062B, r24	; 0x80062b <gain_setting_int_cap+0x7f69b5>
    15b6:	a2 81       	ldd	r26, Z+2	; 0x02
    15b8:	b3 81       	ldd	r27, Z+3	; 0x03
    15ba:	a2 0f       	add	r26, r18
    15bc:	b3 1f       	adc	r27, r19
    15be:	9c 91       	ld	r25, X
    15c0:	11 96       	adiw	r26, 0x01	; 1
    15c2:	8c 91       	ld	r24, X
    15c4:	90 93 26 06 	sts	0x0626, r25	; 0x800626 <gain_setting_int_cap+0x7f69b0>
    15c8:	80 93 27 06 	sts	0x0627, r24	; 0x800627 <gain_setting_int_cap+0x7f69b1>
    15cc:	95 e0       	ldi	r25, 0x05	; 5
    15ce:	96 9f       	mul	r25, r22
    15d0:	a0 01       	movw	r20, r0
    15d2:	97 9f       	mul	r25, r23
    15d4:	50 0d       	add	r21, r0
    15d6:	11 24       	eor	r1, r1
    15d8:	a4 81       	ldd	r26, Z+4	; 0x04
    15da:	b5 81       	ldd	r27, Z+5	; 0x05
    15dc:	a4 0f       	add	r26, r20
    15de:	b5 1f       	adc	r27, r21
    15e0:	13 96       	adiw	r26, 0x03	; 3
    15e2:	8c 91       	ld	r24, X
    15e4:	80 93 1a 06 	sts	0x061A, r24	; 0x80061a <gain_setting_int_cap+0x7f69a4>
    15e8:	a4 81       	ldd	r26, Z+4	; 0x04
    15ea:	b5 81       	ldd	r27, Z+5	; 0x05
    15ec:	a4 0f       	add	r26, r20
    15ee:	b5 1f       	adc	r27, r21
    15f0:	14 96       	adiw	r26, 0x04	; 4
    15f2:	8c 91       	ld	r24, X
    15f4:	80 93 1b 06 	sts	0x061B, r24	; 0x80061b <gain_setting_int_cap+0x7f69a5>
    15f8:	a4 81       	ldd	r26, Z+4	; 0x04
    15fa:	b5 81       	ldd	r27, Z+5	; 0x05
    15fc:	a4 0f       	add	r26, r20
    15fe:	b5 1f       	adc	r27, r21
    1600:	8c 91       	ld	r24, X
    1602:	81 fd       	sbrc	r24, 1
    1604:	9c 93       	st	X, r25
    1606:	84 81       	ldd	r24, Z+4	; 0x04
    1608:	95 81       	ldd	r25, Z+5	; 0x05
    160a:	dc 01       	movw	r26, r24
    160c:	a4 0f       	add	r26, r20
    160e:	b5 1f       	adc	r27, r21
    1610:	8c 91       	ld	r24, X
    1612:	8c 71       	andi	r24, 0x1C	; 28
    1614:	69 f4       	brne	.+26     	; 0x1630 <qtm_measure_node+0xaa>
    1616:	a2 81       	ldd	r26, Z+2	; 0x02
    1618:	b3 81       	ldd	r27, Z+3	; 0x03
    161a:	a2 0f       	add	r26, r18
    161c:	b3 1f       	adc	r27, r19
    161e:	16 96       	adiw	r26, 0x06	; 6
    1620:	ac 91       	ld	r26, X
    1622:	a2 95       	swap	r26
    1624:	af 70       	andi	r26, 0x0F	; 15
    1626:	b0 e0       	ldi	r27, 0x00	; 0
    1628:	aa 58       	subi	r26, 0x8A	; 138
    162a:	b3 46       	sbci	r27, 0x63	; 99
    162c:	8c 91       	ld	r24, X
    162e:	01 c0       	rjmp	.+2      	; 0x1632 <qtm_measure_node+0xac>
    1630:	8f e3       	ldi	r24, 0x3F	; 63
    1632:	80 93 1c 06 	sts	0x061C, r24	; 0x80061c <gain_setting_int_cap+0x7f69a6>
    1636:	a2 81       	ldd	r26, Z+2	; 0x02
    1638:	b3 81       	ldd	r27, Z+3	; 0x03
    163a:	a2 0f       	add	r26, r18
    163c:	b3 1f       	adc	r27, r19
    163e:	14 96       	adiw	r26, 0x04	; 4
    1640:	8c 91       	ld	r24, X
    1642:	8b 31       	cpi	r24, 0x1B	; 27
    1644:	10 f4       	brcc	.+4      	; 0x164a <qtm_measure_node+0xc4>
    1646:	8c 5f       	subi	r24, 0xFC	; 252
    1648:	01 c0       	rjmp	.+2      	; 0x164c <qtm_measure_node+0xc6>
    164a:	8f e1       	ldi	r24, 0x1F	; 31
    164c:	80 93 05 06 	sts	0x0605, r24	; 0x800605 <gain_setting_int_cap+0x7f698f>
    1650:	a2 81       	ldd	r26, Z+2	; 0x02
    1652:	b3 81       	ldd	r27, Z+3	; 0x03
    1654:	a2 0f       	add	r26, r18
    1656:	b3 1f       	adc	r27, r19
    1658:	17 96       	adiw	r26, 0x07	; 7
    165a:	8c 91       	ld	r24, X
    165c:	80 93 01 06 	sts	0x0601, r24	; 0x800601 <gain_setting_int_cap+0x7f698b>
    1660:	a2 81       	ldd	r26, Z+2	; 0x02
    1662:	b3 81       	ldd	r27, Z+3	; 0x03
    1664:	a2 0f       	add	r26, r18
    1666:	b3 1f       	adc	r27, r19
    1668:	15 96       	adiw	r26, 0x05	; 5
    166a:	8c 91       	ld	r24, X
    166c:	82 95       	swap	r24
    166e:	8f 70       	andi	r24, 0x0F	; 15
    1670:	80 93 19 06 	sts	0x0619, r24	; 0x800619 <gain_setting_int_cap+0x7f69a3>
    1674:	82 81       	ldd	r24, Z+2	; 0x02
    1676:	93 81       	ldd	r25, Z+3	; 0x03
    1678:	fc 01       	movw	r30, r24
    167a:	e2 0f       	add	r30, r18
    167c:	f3 1f       	adc	r31, r19
    167e:	85 81       	ldd	r24, Z+5	; 0x05
    1680:	8f 70       	andi	r24, 0x0F	; 15
    1682:	80 61       	ori	r24, 0x10	; 16
    1684:	80 93 02 06 	sts	0x0602, r24	; 0x800602 <gain_setting_int_cap+0x7f698c>
    1688:	80 91 18 06 	lds	r24, 0x0618	; 0x800618 <gain_setting_int_cap+0x7f69a2>
    168c:	83 60       	ori	r24, 0x03	; 3
    168e:	80 93 18 06 	sts	0x0618, r24	; 0x800618 <gain_setting_int_cap+0x7f69a2>
    1692:	81 e8       	ldi	r24, 0x81	; 129
    1694:	80 93 00 06 	sts	0x0600, r24	; 0x800600 <gain_setting_int_cap+0x7f698a>
    1698:	81 e0       	ldi	r24, 0x01	; 1
    169a:	80 93 08 06 	sts	0x0608, r24	; 0x800608 <gain_setting_int_cap+0x7f6992>
    169e:	08 95       	ret

000016a0 <qtm_acquisition_process>:
    16a0:	3f 92       	push	r3
    16a2:	4f 92       	push	r4
    16a4:	5f 92       	push	r5
    16a6:	6f 92       	push	r6
    16a8:	7f 92       	push	r7
    16aa:	8f 92       	push	r8
    16ac:	9f 92       	push	r9
    16ae:	af 92       	push	r10
    16b0:	bf 92       	push	r11
    16b2:	cf 92       	push	r12
    16b4:	df 92       	push	r13
    16b6:	ef 92       	push	r14
    16b8:	ff 92       	push	r15
    16ba:	0f 93       	push	r16
    16bc:	1f 93       	push	r17
    16be:	cf 93       	push	r28
    16c0:	df 93       	push	r29
    16c2:	80 91 3b 38 	lds	r24, 0x383B	; 0x80383b <touch_seq_lib_state>
    16c6:	88 23       	and	r24, r24
    16c8:	09 f4       	brne	.+2      	; 0x16cc <qtm_acquisition_process+0x2c>
    16ca:	48 c1       	rjmp	.+656    	; 0x195c <qtm_acquisition_process+0x2bc>
    16cc:	a0 91 60 38 	lds	r26, 0x3860	; 0x803860 <qtm_acquisition_control_working_set_ptr>
    16d0:	b0 91 61 38 	lds	r27, 0x3861	; 0x803861 <qtm_acquisition_control_working_set_ptr+0x1>
    16d4:	c0 90 62 38 	lds	r12, 0x3862	; 0x803862 <qtm_raw_data_measurements_ptr>
    16d8:	d0 90 63 38 	lds	r13, 0x3863	; 0x803863 <qtm_raw_data_measurements_ptr+0x1>
    16dc:	00 e0       	ldi	r16, 0x00	; 0
    16de:	10 e0       	ldi	r17, 0x00	; 0
    16e0:	60 e0       	ldi	r22, 0x00	; 0
    16e2:	70 e0       	ldi	r23, 0x00	; 0
    16e4:	e1 2c       	mov	r14, r1
    16e6:	f1 2c       	mov	r15, r1
    16e8:	80 e0       	ldi	r24, 0x00	; 0
    16ea:	33 24       	eor	r3, r3
    16ec:	33 94       	inc	r3
    16ee:	d1 e8       	ldi	r29, 0x81	; 129
    16f0:	4d 2e       	mov	r4, r29
    16f2:	88 24       	eor	r8, r8
    16f4:	8a 94       	dec	r8
    16f6:	99 24       	eor	r9, r9
    16f8:	93 94       	inc	r9
    16fa:	6d 90       	ld	r6, X+
    16fc:	7c 90       	ld	r7, X
    16fe:	11 97       	sbiw	r26, 0x01	; 1
    1700:	f3 01       	movw	r30, r6
    1702:	20 81       	ld	r18, Z
    1704:	31 81       	ldd	r19, Z+1	; 0x01
    1706:	e2 16       	cp	r14, r18
    1708:	f3 06       	cpc	r15, r19
    170a:	08 f0       	brcs	.+2      	; 0x170e <qtm_acquisition_process+0x6e>
    170c:	23 c1       	rjmp	.+582    	; 0x1954 <qtm_acquisition_process+0x2b4>
    170e:	e6 01       	movw	r28, r12
    1710:	29 91       	ld	r18, Y+
    1712:	39 91       	ld	r19, Y+
    1714:	6e 01       	movw	r12, r28
    1716:	14 96       	adiw	r26, 0x04	; 4
    1718:	ed 91       	ld	r30, X+
    171a:	fc 91       	ld	r31, X
    171c:	15 97       	sbiw	r26, 0x05	; 5
    171e:	e6 0f       	add	r30, r22
    1720:	f7 1f       	adc	r31, r23
    1722:	40 81       	ld	r20, Z
    1724:	4c 71       	andi	r20, 0x1C	; 28
    1726:	50 e0       	ldi	r21, 0x00	; 0
    1728:	56 95       	lsr	r21
    172a:	47 95       	ror	r20
    172c:	56 95       	lsr	r21
    172e:	47 95       	ror	r20
    1730:	41 15       	cp	r20, r1
    1732:	51 05       	cpc	r21, r1
    1734:	21 f0       	breq	.+8      	; 0x173e <qtm_acquisition_process+0x9e>
    1736:	41 30       	cpi	r20, 0x01	; 1
    1738:	51 05       	cpc	r21, r1
    173a:	b9 f0       	breq	.+46     	; 0x176a <qtm_acquisition_process+0xca>
    173c:	02 c1       	rjmp	.+516    	; 0x1942 <qtm_acquisition_process+0x2a2>
    173e:	12 96       	adiw	r26, 0x02	; 2
    1740:	cd 91       	ld	r28, X+
    1742:	dc 91       	ld	r29, X
    1744:	13 97       	sbiw	r26, 0x03	; 3
    1746:	c0 0f       	add	r28, r16
    1748:	d1 1f       	adc	r29, r17
    174a:	4e 81       	ldd	r20, Y+6	; 0x06
    174c:	4f 70       	andi	r20, 0x0F	; 15
    174e:	9f 81       	ldd	r25, Y+7	; 0x07
    1750:	49 17       	cp	r20, r25
    1752:	10 f4       	brcc	.+4      	; 0x1758 <qtm_acquisition_process+0xb8>
    1754:	94 1b       	sub	r25, r20
    1756:	01 c0       	rjmp	.+2      	; 0x175a <qtm_acquisition_process+0xba>
    1758:	90 e0       	ldi	r25, 0x00	; 0
    175a:	02 c0       	rjmp	.+4      	; 0x1760 <qtm_acquisition_process+0xc0>
    175c:	36 95       	lsr	r19
    175e:	27 95       	ror	r18
    1760:	9a 95       	dec	r25
    1762:	e2 f7       	brpl	.-8      	; 0x175c <qtm_acquisition_process+0xbc>
    1764:	21 83       	std	Z+1, r18	; 0x01
    1766:	32 83       	std	Z+2, r19	; 0x02
    1768:	ed c0       	rjmp	.+474    	; 0x1944 <qtm_acquisition_process+0x2a4>
    176a:	12 96       	adiw	r26, 0x02	; 2
    176c:	4d 91       	ld	r20, X+
    176e:	5c 91       	ld	r21, X
    1770:	13 97       	sbiw	r26, 0x03	; 3
    1772:	40 0f       	add	r20, r16
    1774:	51 1f       	adc	r21, r17
    1776:	ea 01       	movw	r28, r20
    1778:	0f 80       	ldd	r0, Y+7	; 0x07
    177a:	02 c0       	rjmp	.+4      	; 0x1780 <qtm_acquisition_process+0xe0>
    177c:	36 95       	lsr	r19
    177e:	27 95       	ror	r18
    1780:	0a 94       	dec	r0
    1782:	e2 f7       	brpl	.-8      	; 0x177c <qtm_acquisition_process+0xdc>
    1784:	21 83       	std	Z+1, r18	; 0x01
    1786:	32 83       	std	Z+2, r19	; 0x02
    1788:	a3 80       	ldd	r10, Z+3	; 0x03
    178a:	b4 80       	ldd	r11, Z+4	; 0x04
    178c:	21 15       	cp	r18, r1
    178e:	d2 e0       	ldi	r29, 0x02	; 2
    1790:	3d 07       	cpc	r19, r29
    1792:	20 f0       	brcs	.+8      	; 0x179c <qtm_acquisition_process+0xfc>
    1794:	2f 5f       	subi	r18, 0xFF	; 255
    1796:	31 40       	sbci	r19, 0x01	; 1
    1798:	91 e0       	ldi	r25, 0x01	; 1
    179a:	05 c0       	rjmp	.+10     	; 0x17a6 <qtm_acquisition_process+0x106>
    179c:	a4 01       	movw	r20, r8
    179e:	42 1b       	sub	r20, r18
    17a0:	53 0b       	sbc	r21, r19
    17a2:	9a 01       	movw	r18, r20
    17a4:	90 e0       	ldi	r25, 0x00	; 0
    17a6:	e3 01       	movw	r28, r6
    17a8:	5a 80       	ldd	r5, Y+2	; 0x02
    17aa:	d0 e4       	ldi	r29, 0x40	; 64
    17ac:	5d 12       	cpse	r5, r29
    17ae:	05 c0       	rjmp	.+10     	; 0x17ba <qtm_acquisition_process+0x11a>
    17b0:	36 95       	lsr	r19
    17b2:	27 95       	ror	r18
    17b4:	99 23       	and	r25, r25
    17b6:	19 f0       	breq	.+6      	; 0x17be <qtm_acquisition_process+0x11e>
    17b8:	09 c0       	rjmp	.+18     	; 0x17cc <qtm_acquisition_process+0x12c>
    17ba:	99 23       	and	r25, r25
    17bc:	39 f0       	breq	.+14     	; 0x17cc <qtm_acquisition_process+0x12c>
    17be:	4f ef       	ldi	r20, 0xFF	; 255
    17c0:	a4 16       	cp	r10, r20
    17c2:	b4 06       	cpc	r11, r20
    17c4:	31 f4       	brne	.+12     	; 0x17d2 <qtm_acquisition_process+0x132>
    17c6:	40 82       	st	Z, r4
    17c8:	8e e0       	ldi	r24, 0x0E	; 14
    17ca:	07 c0       	rjmp	.+14     	; 0x17da <qtm_acquisition_process+0x13a>
    17cc:	77 24       	eor	r7, r7
    17ce:	73 94       	inc	r7
    17d0:	01 c0       	rjmp	.+2      	; 0x17d4 <qtm_acquisition_process+0x134>
    17d2:	71 2c       	mov	r7, r1
    17d4:	2a 30       	cpi	r18, 0x0A	; 10
    17d6:	31 05       	cpc	r19, r1
    17d8:	90 f4       	brcc	.+36     	; 0x17fe <qtm_acquisition_process+0x15e>
    17da:	14 96       	adiw	r26, 0x04	; 4
    17dc:	ed 91       	ld	r30, X+
    17de:	fc 91       	ld	r31, X
    17e0:	15 97       	sbiw	r26, 0x05	; 5
    17e2:	e6 0f       	add	r30, r22
    17e4:	f7 1f       	adc	r31, r23
    17e6:	90 81       	ld	r25, Z
    17e8:	97 ff       	sbrs	r25, 7
    17ea:	30 82       	st	Z, r3
    17ec:	14 96       	adiw	r26, 0x04	; 4
    17ee:	ed 91       	ld	r30, X+
    17f0:	fc 91       	ld	r31, X
    17f2:	15 97       	sbiw	r26, 0x05	; 5
    17f4:	e6 0f       	add	r30, r22
    17f6:	f7 1f       	adc	r31, r23
    17f8:	a3 82       	std	Z+3, r10	; 0x03
    17fa:	b4 82       	std	Z+4, r11	; 0x04
    17fc:	a3 c0       	rjmp	.+326    	; 0x1944 <qtm_acquisition_process+0x2a4>
    17fe:	e5 01       	movw	r28, r10
    1800:	cd 2f       	mov	r28, r29
    1802:	dd 27       	eor	r29, r29
    1804:	c2 95       	swap	r28
    1806:	cf 70       	andi	r28, 0x0F	; 15
    1808:	9c 2f       	mov	r25, r28
    180a:	a5 01       	movw	r20, r10
    180c:	44 27       	eor	r20, r20
    180e:	5f 70       	andi	r21, 0x0F	; 15
    1810:	65 2e       	mov	r6, r21
    1812:	a5 01       	movw	r20, r10
    1814:	40 7f       	andi	r20, 0xF0	; 240
    1816:	55 27       	eor	r21, r21
    1818:	52 95       	swap	r21
    181a:	42 95       	swap	r20
    181c:	4f 70       	andi	r20, 0x0F	; 15
    181e:	45 27       	eor	r20, r21
    1820:	5f 70       	andi	r21, 0x0F	; 15
    1822:	45 27       	eor	r20, r21
    1824:	5a 2d       	mov	r21, r10
    1826:	5f 70       	andi	r21, 0x0F	; 15
    1828:	a5 2e       	mov	r10, r21
    182a:	c4 30       	cpi	r28, 0x04	; 4
    182c:	30 f0       	brcs	.+12     	; 0x183a <qtm_acquisition_process+0x19a>
    182e:	93 70       	andi	r25, 0x03	; 3
    1830:	d6 95       	lsr	r29
    1832:	c7 95       	ror	r28
    1834:	d6 95       	lsr	r29
    1836:	c7 95       	ror	r28
    1838:	9c 0f       	add	r25, r28
    183a:	71 10       	cpse	r7, r1
    183c:	3c c0       	rjmp	.+120    	; 0x18b6 <qtm_acquisition_process+0x216>
    183e:	50 e8       	ldi	r21, 0x80	; 128
    1840:	55 0d       	add	r21, r5
    1842:	52 30       	cpi	r21, 0x02	; 2
    1844:	10 f4       	brcc	.+4      	; 0x184a <qtm_acquisition_process+0x1aa>
    1846:	56 e0       	ldi	r21, 0x06	; 6
    1848:	07 c0       	rjmp	.+14     	; 0x1858 <qtm_acquisition_process+0x1b8>
    184a:	53 e0       	ldi	r21, 0x03	; 3
    184c:	05 c0       	rjmp	.+10     	; 0x1858 <qtm_acquisition_process+0x1b8>
    184e:	95 17       	cp	r25, r21
    1850:	68 f4       	brcc	.+26     	; 0x186c <qtm_acquisition_process+0x1cc>
    1852:	9f 5f       	subi	r25, 0xFF	; 255
    1854:	2f 5c       	subi	r18, 0xCF	; 207
    1856:	31 09       	sbc	r19, r1
    1858:	20 3d       	cpi	r18, 0xD0	; 208
    185a:	31 05       	cpc	r19, r1
    185c:	c0 f7       	brcc	.-16     	; 0x184e <qtm_acquisition_process+0x1ae>
    185e:	06 c0       	rjmp	.+12     	; 0x186c <qtm_acquisition_process+0x1cc>
    1860:	cf e0       	ldi	r28, 0x0F	; 15
    1862:	6c 16       	cp	r6, r28
    1864:	49 f0       	breq	.+18     	; 0x1878 <qtm_acquisition_process+0x1d8>
    1866:	63 94       	inc	r6
    1868:	25 51       	subi	r18, 0x15	; 21
    186a:	31 09       	sbc	r19, r1
    186c:	26 31       	cpi	r18, 0x16	; 22
    186e:	31 05       	cpc	r19, r1
    1870:	b8 f7       	brcc	.-18     	; 0x1860 <qtm_acquisition_process+0x1c0>
    1872:	df e0       	ldi	r29, 0x0F	; 15
    1874:	6d 12       	cpse	r6, r29
    1876:	0e c0       	rjmp	.+28     	; 0x1894 <qtm_acquisition_process+0x1f4>
    1878:	95 17       	cp	r25, r21
    187a:	20 f4       	brcc	.+8      	; 0x1884 <qtm_acquisition_process+0x1e4>
    187c:	9f 5f       	subi	r25, 0xFF	; 255
    187e:	d5 e0       	ldi	r29, 0x05	; 5
    1880:	6d 2e       	mov	r6, r29
    1882:	08 c0       	rjmp	.+16     	; 0x1894 <qtm_acquisition_process+0x1f4>
    1884:	cf e0       	ldi	r28, 0x0F	; 15
    1886:	6c 2e       	mov	r6, r28
    1888:	05 c0       	rjmp	.+10     	; 0x1894 <qtm_acquisition_process+0x1f4>
    188a:	4f 30       	cpi	r20, 0x0F	; 15
    188c:	49 f0       	breq	.+18     	; 0x18a0 <qtm_acquisition_process+0x200>
    188e:	4f 5f       	subi	r20, 0xFF	; 255
    1890:	22 50       	subi	r18, 0x02	; 2
    1892:	31 09       	sbc	r19, r1
    1894:	23 30       	cpi	r18, 0x03	; 3
    1896:	31 05       	cpc	r19, r1
    1898:	c0 f7       	brcc	.-16     	; 0x188a <qtm_acquisition_process+0x1ea>
    189a:	4f 30       	cpi	r20, 0x0F	; 15
    189c:	09 f0       	breq	.+2      	; 0x18a0 <qtm_acquisition_process+0x200>
    189e:	65 c0       	rjmp	.+202    	; 0x196a <qtm_acquisition_process+0x2ca>
    18a0:	4f e0       	ldi	r20, 0x0F	; 15
    18a2:	64 16       	cp	r6, r20
    18a4:	81 f1       	breq	.+96     	; 0x1906 <qtm_acquisition_process+0x266>
    18a6:	63 94       	inc	r6
    18a8:	45 e0       	ldi	r20, 0x05	; 5
    18aa:	5f c0       	rjmp	.+190    	; 0x196a <qtm_acquisition_process+0x2ca>
    18ac:	99 23       	and	r25, r25
    18ae:	61 f0       	breq	.+24     	; 0x18c8 <qtm_acquisition_process+0x228>
    18b0:	91 50       	subi	r25, 0x01	; 1
    18b2:	2f 5c       	subi	r18, 0xCF	; 207
    18b4:	31 09       	sbc	r19, r1
    18b6:	20 3d       	cpi	r18, 0xD0	; 208
    18b8:	31 05       	cpc	r19, r1
    18ba:	c0 f7       	brcc	.-16     	; 0x18ac <qtm_acquisition_process+0x20c>
    18bc:	05 c0       	rjmp	.+10     	; 0x18c8 <qtm_acquisition_process+0x228>
    18be:	66 20       	and	r6, r6
    18c0:	41 f0       	breq	.+16     	; 0x18d2 <qtm_acquisition_process+0x232>
    18c2:	6a 94       	dec	r6
    18c4:	25 51       	subi	r18, 0x15	; 21
    18c6:	31 09       	sbc	r19, r1
    18c8:	26 31       	cpi	r18, 0x16	; 22
    18ca:	31 05       	cpc	r19, r1
    18cc:	c0 f7       	brcc	.-16     	; 0x18be <qtm_acquisition_process+0x21e>
    18ce:	61 10       	cpse	r6, r1
    18d0:	0d c0       	rjmp	.+26     	; 0x18ec <qtm_acquisition_process+0x24c>
    18d2:	99 23       	and	r25, r25
    18d4:	21 f0       	breq	.+8      	; 0x18de <qtm_acquisition_process+0x23e>
    18d6:	91 50       	subi	r25, 0x01	; 1
    18d8:	5a e0       	ldi	r21, 0x0A	; 10
    18da:	65 2e       	mov	r6, r21
    18dc:	07 c0       	rjmp	.+14     	; 0x18ec <qtm_acquisition_process+0x24c>
    18de:	61 2c       	mov	r6, r1
    18e0:	05 c0       	rjmp	.+10     	; 0x18ec <qtm_acquisition_process+0x24c>
    18e2:	44 23       	and	r20, r20
    18e4:	41 f0       	breq	.+16     	; 0x18f6 <qtm_acquisition_process+0x256>
    18e6:	41 50       	subi	r20, 0x01	; 1
    18e8:	22 50       	subi	r18, 0x02	; 2
    18ea:	31 09       	sbc	r19, r1
    18ec:	23 30       	cpi	r18, 0x03	; 3
    18ee:	31 05       	cpc	r19, r1
    18f0:	c0 f7       	brcc	.-16     	; 0x18e2 <qtm_acquisition_process+0x242>
    18f2:	41 11       	cpse	r20, r1
    18f4:	10 c0       	rjmp	.+32     	; 0x1916 <qtm_acquisition_process+0x276>
    18f6:	66 20       	and	r6, r6
    18f8:	e9 f1       	breq	.+122    	; 0x1974 <qtm_acquisition_process+0x2d4>
    18fa:	6a 94       	dec	r6
    18fc:	4a e0       	ldi	r20, 0x0A	; 10
    18fe:	23 30       	cpi	r18, 0x03	; 3
    1900:	31 05       	cpc	r19, r1
    1902:	c8 f6       	brcc	.-78     	; 0x18b6 <qtm_acquisition_process+0x216>
    1904:	08 c0       	rjmp	.+16     	; 0x1916 <qtm_acquisition_process+0x276>
    1906:	59 13       	cpse	r21, r25
    1908:	2f c0       	rjmp	.+94     	; 0x1968 <qtm_acquisition_process+0x2c8>
    190a:	23 30       	cpi	r18, 0x03	; 3
    190c:	31 05       	cpc	r19, r1
    190e:	40 f1       	brcs	.+80     	; 0x1960 <qtm_acquisition_process+0x2c0>
    1910:	4f e0       	ldi	r20, 0x0F	; 15
    1912:	a4 2e       	mov	r10, r20
    1914:	4f e0       	ldi	r20, 0x0F	; 15
    1916:	94 30       	cpi	r25, 0x04	; 4
    1918:	18 f0       	brcs	.+6      	; 0x1920 <qtm_acquisition_process+0x280>
    191a:	99 0f       	add	r25, r25
    191c:	99 0f       	add	r25, r25
    191e:	99 50       	subi	r25, 0x09	; 9
    1920:	c0 e1       	ldi	r28, 0x10	; 16
    1922:	4c 9f       	mul	r20, r28
    1924:	a0 01       	movw	r20, r0
    1926:	11 24       	eor	r1, r1
    1928:	56 29       	or	r21, r6
    192a:	4a 29       	or	r20, r10
    192c:	c9 2f       	mov	r28, r25
    192e:	d0 e0       	ldi	r29, 0x00	; 0
    1930:	dc 2f       	mov	r29, r28
    1932:	cc 27       	eor	r28, r28
    1934:	d2 95       	swap	r29
    1936:	d0 7f       	andi	r29, 0xF0	; 240
    1938:	4c 2b       	or	r20, r28
    193a:	5d 2b       	or	r21, r29
    193c:	43 83       	std	Z+3, r20	; 0x03
    193e:	54 83       	std	Z+4, r21	; 0x04
    1940:	01 c0       	rjmp	.+2      	; 0x1944 <qtm_acquisition_process+0x2a4>
    1942:	ff cf       	rjmp	.-2      	; 0x1942 <qtm_acquisition_process+0x2a2>
    1944:	df ef       	ldi	r29, 0xFF	; 255
    1946:	ed 1a       	sub	r14, r29
    1948:	fd 0a       	sbc	r15, r29
    194a:	6b 5f       	subi	r22, 0xFB	; 251
    194c:	7f 4f       	sbci	r23, 0xFF	; 255
    194e:	08 5f       	subi	r16, 0xF8	; 248
    1950:	1f 4f       	sbci	r17, 0xFF	; 255
    1952:	d3 ce       	rjmp	.-602    	; 0x16fa <qtm_acquisition_process+0x5a>
    1954:	92 e0       	ldi	r25, 0x02	; 2
    1956:	90 93 3b 38 	sts	0x383B, r25	; 0x80383b <touch_seq_lib_state>
    195a:	0e c0       	rjmp	.+28     	; 0x1978 <qtm_acquisition_process+0x2d8>
    195c:	83 e0       	ldi	r24, 0x03	; 3
    195e:	0c c0       	rjmp	.+24     	; 0x1978 <qtm_acquisition_process+0x2d8>
    1960:	4f e0       	ldi	r20, 0x0F	; 15
    1962:	2f e0       	ldi	r18, 0x0F	; 15
    1964:	a2 2e       	mov	r10, r18
    1966:	d7 cf       	rjmp	.-82     	; 0x1916 <qtm_acquisition_process+0x276>
    1968:	4f e0       	ldi	r20, 0x0F	; 15
    196a:	23 30       	cpi	r18, 0x03	; 3
    196c:	31 05       	cpc	r19, r1
    196e:	08 f0       	brcs	.+2      	; 0x1972 <qtm_acquisition_process+0x2d2>
    1970:	73 cf       	rjmp	.-282    	; 0x1858 <qtm_acquisition_process+0x1b8>
    1972:	d1 cf       	rjmp	.-94     	; 0x1916 <qtm_acquisition_process+0x276>
    1974:	40 e0       	ldi	r20, 0x00	; 0
    1976:	cf cf       	rjmp	.-98     	; 0x1916 <qtm_acquisition_process+0x276>
    1978:	df 91       	pop	r29
    197a:	cf 91       	pop	r28
    197c:	1f 91       	pop	r17
    197e:	0f 91       	pop	r16
    1980:	ff 90       	pop	r15
    1982:	ef 90       	pop	r14
    1984:	df 90       	pop	r13
    1986:	cf 90       	pop	r12
    1988:	bf 90       	pop	r11
    198a:	af 90       	pop	r10
    198c:	9f 90       	pop	r9
    198e:	8f 90       	pop	r8
    1990:	7f 90       	pop	r7
    1992:	6f 90       	pop	r6
    1994:	5f 90       	pop	r5
    1996:	4f 90       	pop	r4
    1998:	3f 90       	pop	r3
    199a:	08 95       	ret

0000199c <qtm_ptc_init_acquisition_module>:
    199c:	cf 93       	push	r28
    199e:	df 93       	push	r29
    19a0:	00 97       	sbiw	r24, 0x00	; 0
    19a2:	e1 f1       	breq	.+120    	; 0x1a1c <qtm_ptc_init_acquisition_module+0x80>
    19a4:	dc 01       	movw	r26, r24
    19a6:	ed 91       	ld	r30, X+
    19a8:	fc 91       	ld	r31, X
    19aa:	a0 81       	ld	r26, Z
    19ac:	b1 81       	ldd	r27, Z+1	; 0x01
    19ae:	60 e0       	ldi	r22, 0x00	; 0
    19b0:	70 e0       	ldi	r23, 0x00	; 0
    19b2:	40 e0       	ldi	r20, 0x00	; 0
    19b4:	50 e0       	ldi	r21, 0x00	; 0
    19b6:	20 e0       	ldi	r18, 0x00	; 0
    19b8:	30 e0       	ldi	r19, 0x00	; 0
    19ba:	4a 17       	cp	r20, r26
    19bc:	5b 07       	cpc	r21, r27
    19be:	99 f0       	breq	.+38     	; 0x19e6 <qtm_ptc_init_acquisition_module+0x4a>
    19c0:	ec 01       	movw	r28, r24
    19c2:	ea 81       	ldd	r30, Y+2	; 0x02
    19c4:	fb 81       	ldd	r31, Y+3	; 0x03
    19c6:	e6 0f       	add	r30, r22
    19c8:	f7 1f       	adc	r31, r23
    19ca:	c0 81       	ld	r28, Z
    19cc:	d1 81       	ldd	r29, Z+1	; 0x01
    19ce:	02 80       	ldd	r0, Z+2	; 0x02
    19d0:	f3 81       	ldd	r31, Z+3	; 0x03
    19d2:	e0 2d       	mov	r30, r0
    19d4:	ec 2b       	or	r30, r28
    19d6:	fd 2b       	or	r31, r29
    19d8:	2e 2b       	or	r18, r30
    19da:	3f 2b       	or	r19, r31
    19dc:	4f 5f       	subi	r20, 0xFF	; 255
    19de:	5f 4f       	sbci	r21, 0xFF	; 255
    19e0:	68 5f       	subi	r22, 0xF8	; 248
    19e2:	7f 4f       	sbci	r23, 0xFF	; 255
    19e4:	ea cf       	rjmp	.-44     	; 0x19ba <qtm_ptc_init_acquisition_module+0x1e>
    19e6:	21 15       	cp	r18, r1
    19e8:	31 05       	cpc	r19, r1
    19ea:	d1 f0       	breq	.+52     	; 0x1a20 <qtm_ptc_init_acquisition_module+0x84>
    19ec:	80 91 3b 38 	lds	r24, 0x383B	; 0x80383b <touch_seq_lib_state>
    19f0:	81 11       	cpse	r24, r1
    19f2:	08 c0       	rjmp	.+16     	; 0x1a04 <qtm_ptc_init_acquisition_module+0x68>
    19f4:	20 93 22 06 	sts	0x0622, r18	; 0x800622 <gain_setting_int_cap+0x7f69ac>
    19f8:	30 93 23 06 	sts	0x0623, r19	; 0x800623 <gain_setting_int_cap+0x7f69ad>
    19fc:	81 e0       	ldi	r24, 0x01	; 1
    19fe:	80 93 3b 38 	sts	0x383B, r24	; 0x80383b <touch_seq_lib_state>
    1a02:	0a c0       	rjmp	.+20     	; 0x1a18 <qtm_ptc_init_acquisition_module+0x7c>
    1a04:	80 91 22 06 	lds	r24, 0x0622	; 0x800622 <gain_setting_int_cap+0x7f69ac>
    1a08:	82 2b       	or	r24, r18
    1a0a:	80 93 22 06 	sts	0x0622, r24	; 0x800622 <gain_setting_int_cap+0x7f69ac>
    1a0e:	80 91 23 06 	lds	r24, 0x0623	; 0x800623 <gain_setting_int_cap+0x7f69ad>
    1a12:	83 2b       	or	r24, r19
    1a14:	80 93 23 06 	sts	0x0623, r24	; 0x800623 <gain_setting_int_cap+0x7f69ad>
    1a18:	80 e0       	ldi	r24, 0x00	; 0
    1a1a:	03 c0       	rjmp	.+6      	; 0x1a22 <qtm_ptc_init_acquisition_module+0x86>
    1a1c:	8b e0       	ldi	r24, 0x0B	; 11
    1a1e:	01 c0       	rjmp	.+2      	; 0x1a22 <qtm_ptc_init_acquisition_module+0x86>
    1a20:	82 e0       	ldi	r24, 0x02	; 2
    1a22:	df 91       	pop	r29
    1a24:	cf 91       	pop	r28
    1a26:	08 95       	ret

00001a28 <qtm_ptc_qtlib_assign_signal_memory>:
    1a28:	00 97       	sbiw	r24, 0x00	; 0
    1a2a:	31 f0       	breq	.+12     	; 0x1a38 <qtm_ptc_qtlib_assign_signal_memory+0x10>
    1a2c:	80 93 62 38 	sts	0x3862, r24	; 0x803862 <qtm_raw_data_measurements_ptr>
    1a30:	90 93 63 38 	sts	0x3863, r25	; 0x803863 <qtm_raw_data_measurements_ptr+0x1>
    1a34:	80 e0       	ldi	r24, 0x00	; 0
    1a36:	08 95       	ret
    1a38:	8b e0       	ldi	r24, 0x0B	; 11
    1a3a:	08 95       	ret

00001a3c <qtm_ptc_start_measurement_seq>:
    1a3c:	61 15       	cp	r22, r1
    1a3e:	71 05       	cpc	r23, r1
    1a40:	a1 f1       	breq	.+104    	; 0x1aaa <qtm_ptc_start_measurement_seq+0x6e>
    1a42:	00 97       	sbiw	r24, 0x00	; 0
    1a44:	91 f1       	breq	.+100    	; 0x1aaa <qtm_ptc_start_measurement_seq+0x6e>
    1a46:	20 91 3b 38 	lds	r18, 0x383B	; 0x80383b <touch_seq_lib_state>
    1a4a:	22 23       	and	r18, r18
    1a4c:	81 f1       	breq	.+96     	; 0x1aae <qtm_ptc_start_measurement_seq+0x72>
    1a4e:	24 30       	cpi	r18, 0x04	; 4
    1a50:	81 f1       	breq	.+96     	; 0x1ab2 <qtm_ptc_start_measurement_seq+0x76>
    1a52:	80 93 60 38 	sts	0x3860, r24	; 0x803860 <qtm_acquisition_control_working_set_ptr>
    1a56:	90 93 61 38 	sts	0x3861, r25	; 0x803861 <qtm_acquisition_control_working_set_ptr+0x1>
    1a5a:	60 93 39 38 	sts	0x3839, r22	; 0x803839 <ptc_seq_measure_complete_pointer>
    1a5e:	70 93 3a 38 	sts	0x383A, r23	; 0x80383a <ptc_seq_measure_complete_pointer+0x1>
    1a62:	10 92 18 06 	sts	0x0618, r1	; 0x800618 <gain_setting_int_cap+0x7f69a2>
    1a66:	dc 01       	movw	r26, r24
    1a68:	ed 91       	ld	r30, X+
    1a6a:	fc 91       	ld	r31, X
    1a6c:	22 81       	ldd	r18, Z+2	; 0x02
    1a6e:	20 34       	cpi	r18, 0x40	; 64
    1a70:	39 f4       	brne	.+14     	; 0x1a80 <qtm_ptc_start_measurement_seq+0x44>
    1a72:	20 ec       	ldi	r18, 0xC0	; 192
    1a74:	20 93 18 06 	sts	0x0618, r18	; 0x800618 <gain_setting_int_cap+0x7f69a2>
    1a78:	20 91 18 06 	lds	r18, 0x0618	; 0x800618 <gain_setting_int_cap+0x7f69a2>
    1a7c:	20 62       	ori	r18, 0x20	; 32
    1a7e:	05 c0       	rjmp	.+10     	; 0x1a8a <qtm_ptc_start_measurement_seq+0x4e>
    1a80:	20 38       	cpi	r18, 0x80	; 128
    1a82:	41 f4       	brne	.+16     	; 0x1a94 <qtm_ptc_start_measurement_seq+0x58>
    1a84:	20 91 18 06 	lds	r18, 0x0618	; 0x800618 <gain_setting_int_cap+0x7f69a2>
    1a88:	28 62       	ori	r18, 0x28	; 40
    1a8a:	20 93 18 06 	sts	0x0618, r18	; 0x800618 <gain_setting_int_cap+0x7f69a2>
    1a8e:	10 92 1e 06 	sts	0x061E, r1	; 0x80061e <gain_setting_int_cap+0x7f69a8>
    1a92:	13 c0       	rjmp	.+38     	; 0x1aba <qtm_ptc_start_measurement_seq+0x7e>
    1a94:	21 38       	cpi	r18, 0x81	; 129
    1a96:	79 f4       	brne	.+30     	; 0x1ab6 <qtm_ptc_start_measurement_seq+0x7a>
    1a98:	20 91 18 06 	lds	r18, 0x0618	; 0x800618 <gain_setting_int_cap+0x7f69a2>
    1a9c:	28 62       	ori	r18, 0x28	; 40
    1a9e:	20 93 18 06 	sts	0x0618, r18	; 0x800618 <gain_setting_int_cap+0x7f69a2>
    1aa2:	26 e8       	ldi	r18, 0x86	; 134
    1aa4:	20 93 1e 06 	sts	0x061E, r18	; 0x80061e <gain_setting_int_cap+0x7f69a8>
    1aa8:	08 c0       	rjmp	.+16     	; 0x1aba <qtm_ptc_start_measurement_seq+0x7e>
    1aaa:	8b e0       	ldi	r24, 0x0B	; 11
    1aac:	08 95       	ret
    1aae:	83 e0       	ldi	r24, 0x03	; 3
    1ab0:	08 95       	ret
    1ab2:	81 e0       	ldi	r24, 0x01	; 1
    1ab4:	08 95       	ret
    1ab6:	82 e0       	ldi	r24, 0x02	; 2
    1ab8:	08 95       	ret
    1aba:	10 92 00 06 	sts	0x0600, r1	; 0x800600 <gain_setting_int_cap+0x7f698a>
    1abe:	dc 01       	movw	r26, r24
    1ac0:	ed 91       	ld	r30, X+
    1ac2:	fc 91       	ld	r31, X
    1ac4:	84 81       	ldd	r24, Z+4	; 0x04
    1ac6:	80 31       	cpi	r24, 0x10	; 16
    1ac8:	08 f0       	brcs	.+2      	; 0x1acc <qtm_ptc_start_measurement_seq+0x90>
    1aca:	80 e1       	ldi	r24, 0x10	; 16
    1acc:	80 93 03 06 	sts	0x0603, r24	; 0x800603 <gain_setting_int_cap+0x7f698d>
    1ad0:	81 e0       	ldi	r24, 0x01	; 1
    1ad2:	80 93 0b 06 	sts	0x060B, r24	; 0x80060b <gain_setting_int_cap+0x7f6995>
    1ad6:	80 93 0a 06 	sts	0x060A, r24	; 0x80060a <gain_setting_int_cap+0x7f6994>
    1ada:	80 93 29 38 	sts	0x3829, r24	; 0x803829 <qtm_which_mode_current>
    1ade:	10 92 3c 38 	sts	0x383C, r1	; 0x80383c <current_measure_channel>
    1ae2:	10 92 3d 38 	sts	0x383D, r1	; 0x80383d <current_measure_channel+0x1>
    1ae6:	0e 94 90 0a 	call	0x1520	; 0x1520 <select_next_channel_to_measure>
    1aea:	81 11       	cpse	r24, r1
    1aec:	0b c0       	rjmp	.+22     	; 0x1b04 <qtm_ptc_start_measurement_seq+0xc8>
    1aee:	84 e0       	ldi	r24, 0x04	; 4
    1af0:	80 93 3b 38 	sts	0x383B, r24	; 0x80383b <touch_seq_lib_state>
    1af4:	80 91 3c 38 	lds	r24, 0x383C	; 0x80383c <current_measure_channel>
    1af8:	90 91 3d 38 	lds	r25, 0x383D	; 0x80383d <current_measure_channel+0x1>
    1afc:	0e 94 c3 0a 	call	0x1586	; 0x1586 <qtm_measure_node>
    1b00:	80 e0       	ldi	r24, 0x00	; 0
    1b02:	08 95       	ret
    1b04:	82 e0       	ldi	r24, 0x02	; 2
    1b06:	80 93 3b 38 	sts	0x383B, r24	; 0x80383b <touch_seq_lib_state>
    1b0a:	08 95       	ret

00001b0c <qtm_enable_sensor_node>:
    1b0c:	00 97       	sbiw	r24, 0x00	; 0
    1b0e:	c9 f0       	breq	.+50     	; 0x1b42 <qtm_enable_sensor_node+0x36>
    1b10:	dc 01       	movw	r26, r24
    1b12:	ed 91       	ld	r30, X+
    1b14:	fc 91       	ld	r31, X
    1b16:	11 97       	sbiw	r26, 0x01	; 1
    1b18:	20 81       	ld	r18, Z
    1b1a:	31 81       	ldd	r19, Z+1	; 0x01
    1b1c:	26 17       	cp	r18, r22
    1b1e:	37 07       	cpc	r19, r23
    1b20:	90 f0       	brcs	.+36     	; 0x1b46 <qtm_enable_sensor_node+0x3a>
    1b22:	45 e0       	ldi	r20, 0x05	; 5
    1b24:	46 9f       	mul	r20, r22
    1b26:	90 01       	movw	r18, r0
    1b28:	47 9f       	mul	r20, r23
    1b2a:	30 0d       	add	r19, r0
    1b2c:	11 24       	eor	r1, r1
    1b2e:	14 96       	adiw	r26, 0x04	; 4
    1b30:	ed 91       	ld	r30, X+
    1b32:	fc 91       	ld	r31, X
    1b34:	15 97       	sbiw	r26, 0x05	; 5
    1b36:	e2 0f       	add	r30, r18
    1b38:	f3 1f       	adc	r31, r19
    1b3a:	81 e0       	ldi	r24, 0x01	; 1
    1b3c:	80 83       	st	Z, r24
    1b3e:	80 e0       	ldi	r24, 0x00	; 0
    1b40:	08 95       	ret
    1b42:	8b e0       	ldi	r24, 0x0B	; 11
    1b44:	08 95       	ret
    1b46:	82 e0       	ldi	r24, 0x02	; 2
    1b48:	08 95       	ret

00001b4a <qtm_calibrate_sensor_node>:
    1b4a:	fc 01       	movw	r30, r24
    1b4c:	89 2b       	or	r24, r25
    1b4e:	d1 f1       	breq	.+116    	; 0x1bc4 <qtm_calibrate_sensor_node+0x7a>
    1b50:	a0 81       	ld	r26, Z
    1b52:	b1 81       	ldd	r27, Z+1	; 0x01
    1b54:	8d 91       	ld	r24, X+
    1b56:	9c 91       	ld	r25, X
    1b58:	11 97       	sbiw	r26, 0x01	; 1
    1b5a:	86 17       	cp	r24, r22
    1b5c:	97 07       	cpc	r25, r23
    1b5e:	a0 f1       	brcs	.+104    	; 0x1bc8 <qtm_calibrate_sensor_node+0x7e>
    1b60:	12 96       	adiw	r26, 0x02	; 2
    1b62:	9c 91       	ld	r25, X
    1b64:	04 80       	ldd	r0, Z+4	; 0x04
    1b66:	f5 81       	ldd	r31, Z+5	; 0x05
    1b68:	e0 2d       	mov	r30, r0
    1b6a:	90 34       	cpi	r25, 0x40	; 64
    1b6c:	59 f4       	brne	.+22     	; 0x1b84 <qtm_calibrate_sensor_node+0x3a>
    1b6e:	85 e0       	ldi	r24, 0x05	; 5
    1b70:	86 9f       	mul	r24, r22
    1b72:	d0 01       	movw	r26, r0
    1b74:	87 9f       	mul	r24, r23
    1b76:	b0 0d       	add	r27, r0
    1b78:	11 24       	eor	r1, r1
    1b7a:	ae 0f       	add	r26, r30
    1b7c:	bf 1f       	adc	r27, r31
    1b7e:	84 e3       	ldi	r24, 0x34	; 52
    1b80:	92 e0       	ldi	r25, 0x02	; 2
    1b82:	0d c0       	rjmp	.+26     	; 0x1b9e <qtm_calibrate_sensor_node+0x54>
    1b84:	90 58       	subi	r25, 0x80	; 128
    1b86:	92 30       	cpi	r25, 0x02	; 2
    1b88:	80 f4       	brcc	.+32     	; 0x1baa <qtm_calibrate_sensor_node+0x60>
    1b8a:	85 e0       	ldi	r24, 0x05	; 5
    1b8c:	86 9f       	mul	r24, r22
    1b8e:	d0 01       	movw	r26, r0
    1b90:	87 9f       	mul	r24, r23
    1b92:	b0 0d       	add	r27, r0
    1b94:	11 24       	eor	r1, r1
    1b96:	ae 0f       	add	r26, r30
    1b98:	bf 1f       	adc	r27, r31
    1b9a:	87 e6       	ldi	r24, 0x67	; 103
    1b9c:	95 e0       	ldi	r25, 0x05	; 5
    1b9e:	13 96       	adiw	r26, 0x03	; 3
    1ba0:	8d 93       	st	X+, r24
    1ba2:	9c 93       	st	X, r25
    1ba4:	14 97       	sbiw	r26, 0x04	; 4
    1ba6:	80 e0       	ldi	r24, 0x00	; 0
    1ba8:	01 c0       	rjmp	.+2      	; 0x1bac <qtm_calibrate_sensor_node+0x62>
    1baa:	82 e0       	ldi	r24, 0x02	; 2
    1bac:	95 e0       	ldi	r25, 0x05	; 5
    1bae:	96 9f       	mul	r25, r22
    1bb0:	90 01       	movw	r18, r0
    1bb2:	97 9f       	mul	r25, r23
    1bb4:	30 0d       	add	r19, r0
    1bb6:	11 24       	eor	r1, r1
    1bb8:	e2 0f       	add	r30, r18
    1bba:	f3 1f       	adc	r31, r19
    1bbc:	90 81       	ld	r25, Z
    1bbe:	92 60       	ori	r25, 0x02	; 2
    1bc0:	90 83       	st	Z, r25
    1bc2:	08 95       	ret
    1bc4:	8b e0       	ldi	r24, 0x0B	; 11
    1bc6:	08 95       	ret
    1bc8:	82 e0       	ldi	r24, 0x02	; 2
    1bca:	08 95       	ret

00001bcc <qtm_t161x_ptc_handler_eoc>:
    1bcc:	10 92 00 06 	sts	0x0600, r1	; 0x800600 <gain_setting_int_cap+0x7f698a>
    1bd0:	40 91 10 06 	lds	r20, 0x0610	; 0x800610 <gain_setting_int_cap+0x7f699a>
    1bd4:	50 91 11 06 	lds	r21, 0x0611	; 0x800611 <gain_setting_int_cap+0x7f699b>
    1bd8:	80 91 3c 38 	lds	r24, 0x383C	; 0x80383c <current_measure_channel>
    1bdc:	90 91 3d 38 	lds	r25, 0x383D	; 0x80383d <current_measure_channel+0x1>
    1be0:	9c 01       	movw	r18, r24
    1be2:	22 0f       	add	r18, r18
    1be4:	33 1f       	adc	r19, r19
    1be6:	e0 91 62 38 	lds	r30, 0x3862	; 0x803862 <qtm_raw_data_measurements_ptr>
    1bea:	f0 91 63 38 	lds	r31, 0x3863	; 0x803863 <qtm_raw_data_measurements_ptr+0x1>
    1bee:	e2 0f       	add	r30, r18
    1bf0:	f3 1f       	adc	r31, r19
    1bf2:	40 83       	st	Z, r20
    1bf4:	51 83       	std	Z+1, r21	; 0x01
    1bf6:	01 96       	adiw	r24, 0x01	; 1
    1bf8:	80 93 3c 38 	sts	0x383C, r24	; 0x80383c <current_measure_channel>
    1bfc:	90 93 3d 38 	sts	0x383D, r25	; 0x80383d <current_measure_channel+0x1>
    1c00:	0e 94 90 0a 	call	0x1520	; 0x1520 <select_next_channel_to_measure>
    1c04:	81 11       	cpse	r24, r1
    1c06:	09 c0       	rjmp	.+18     	; 0x1c1a <qtm_t161x_ptc_handler_eoc+0x4e>
    1c08:	84 e0       	ldi	r24, 0x04	; 4
    1c0a:	80 93 3b 38 	sts	0x383B, r24	; 0x80383b <touch_seq_lib_state>
    1c0e:	80 91 3c 38 	lds	r24, 0x383C	; 0x80383c <current_measure_channel>
    1c12:	90 91 3d 38 	lds	r25, 0x383D	; 0x80383d <current_measure_channel+0x1>
    1c16:	0c 94 c3 0a 	jmp	0x1586	; 0x1586 <qtm_measure_node>
    1c1a:	e0 91 39 38 	lds	r30, 0x3839	; 0x803839 <ptc_seq_measure_complete_pointer>
    1c1e:	f0 91 3a 38 	lds	r31, 0x383A	; 0x80383a <ptc_seq_measure_complete_pointer+0x1>
    1c22:	09 94       	ijmp

00001c24 <_exit>:
    1c24:	f8 94       	cli

00001c26 <__stop_program>:
    1c26:	ff cf       	rjmp	.-2      	; 0x1c26 <__stop_program>
